******************************************************************************
                  TI ARM Linker Unix v16.9.3                   
******************************************************************************
>> Linked Tue Jan 30 14:23:57 2018

OUTPUT FILE NAME:   <Sprite.out>
ENTRY POINT SYMBOL: "ResetISR"  address: 00009c7d


MEMORY CONFIGURATION

         name            origin    length      used     unused   attr    fill
----------------------  --------  ---------  --------  --------  ----  --------
  FLASH                 00000000   00020000  0000fd9b  00010265  R  X
  SRAM                  20000000   00005000  00004eb3  0000014d  RW X


SEGMENT ALLOCATION MAP

run origin  load origin   length   init length attrs members
----------  ----------- ---------- ----------- ----- -------
00000000    00000000    000004d8   000004d8    r--
  00000000    00000000    0000003c   0000003c    r-- .resetVecs
  00000040    00000040    00000498   00000498    r-- .cinit
00001000    00001000    0000f87b   0000f87b    r-x
  00001000    00001000    0000003c   0000003c    r-- .const:ti_sysbios_knl_Task_Object__PARAMS__C
  0000103c    0000103c    00000034   00000034    r-- .const:ti_sysbios_knl_Mailbox_Object__PARAMS__C
  00001070    00001070    00000030   00000030    r-- .const:ti_sysbios_family_arm_m3_Hwi_Object__PARAMS__C
  000010a0    000010a0    0000002c   0000002c    r-- .const:ti_sysbios_hal_Hwi_Object__PARAMS__C
  000010cc    000010cc    00000028   00000028    r-- .const:ti_sysbios_heaps_HeapMem_Module__FXNS__C
  000010f4    000010f4    00000028   00000028    r-- .const:ti_sysbios_knl_Swi_Object__PARAMS__C
  0000111c    0000111c    00000024   00000024    r-- .const:ti_sysbios_gates_GateHwi_Module__FXNS__C
  00001140    00001140    00000024   00000024    r-- .const:ti_sysbios_gates_GateMutex_Module__FXNS__C
  00001164    00001164    00000024   00000024    r-- .const:ti_sysbios_heaps_HeapMem_Object__PARAMS__C
  00001188    00001188    00000024   00000024    r-- .const:ti_sysbios_knl_Clock_Object__PARAMS__C
  000011ac    000011ac    00000024   00000024    r-- .const:ti_sysbios_knl_Semaphore_Object__PARAMS__C
  000011d0    000011d0    00000020   00000020    r-- .const:ti_sysbios_family_arm_m3_Hwi_Object__DESC__C
  000011f0    000011f0    00000020   00000020    r-- .const:ti_sysbios_gates_GateHwi_Object__DESC__C
  00001210    00001210    00000020   00000020    r-- .const:ti_sysbios_gates_GateMutex_Object__DESC__C
  00001230    00001230    00000020   00000020    r-- .const:ti_sysbios_hal_Hwi_Object__DESC__C
  00001250    00001250    00000020   00000020    r-- .const:ti_sysbios_heaps_HeapMem_Object__DESC__C
  00001270    00001270    00000020   00000020    r-- .const:ti_sysbios_knl_Clock_Object__DESC__C
  00001290    00001290    00000020   00000020    r-- .const:ti_sysbios_knl_Mailbox_Object__DESC__C
  000012b0    000012b0    00000020   00000020    r-- .const:ti_sysbios_knl_Queue_Object__DESC__C
  000012d0    000012d0    00000020   00000020    r-- .const:ti_sysbios_knl_Semaphore_Object__DESC__C
  000012f0    000012f0    00000020   00000020    r-- .const:ti_sysbios_knl_Swi_Object__DESC__C
  00001310    00001310    00000020   00000020    r-- .const:ti_sysbios_knl_Task_Object__DESC__C
  00001330    00001330    00000018   00000018    r-- .const:ti_sysbios_gates_GateHwi_Object__PARAMS__C
  00001348    00001348    00000018   00000018    r-- .const:ti_sysbios_gates_GateMutex_Object__PARAMS__C
  00001360    00001360    00000018   00000018    r-- .const:ti_sysbios_knl_Queue_Object__PARAMS__C
  00001378    00001378    00000008   00000008    r-- .const:ti_sysbios_knl_Idle_funcList__C
  00001384    00001384    00000004   00000004    r-- .const:ti_sysbios_family_arm_cc26xx_Timer_startupNeeded__C
  00001388    00001388    00000004   00000004    r-- .const:ti_sysbios_family_arm_m3_Hwi_E_alreadyDefined__C
  0000138c    0000138c    00000004   00000004    r-- .const:ti_sysbios_family_arm_m3_Hwi_E_hwiLimitExceeded__C
  00001390    00001390    00000004   00000004    r-- .const:ti_sysbios_family_arm_m3_Hwi_NUM_INTERRUPTS__C
  00001394    00001394    00000004   00000004    r-- .const:ti_sysbios_family_arm_m3_Hwi_Object__count__C
  00001398    00001398    00000004   00000004    r-- .const:ti_sysbios_family_arm_m3_Hwi_Object__table__C
  0000139c    0000139c    00000004   00000004    r-- .const:ti_sysbios_family_arm_m3_Hwi_ccr__C
  000013a0    000013a0    00000004   00000004    r-- .const:ti_sysbios_family_arm_m3_Hwi_excHandlerFunc__C
  000013a4    000013a4    00000004   00000004    r-- .const:ti_sysbios_family_arm_m3_Hwi_nullIsrFunc__C
  000013a8    000013a8    00000004   00000004    r-- .const:ti_sysbios_family_arm_m3_Hwi_numSparseInterrupts__C
  000013ac    000013ac    00000004   00000004    r-- .const:ti_sysbios_family_arm_m3_Hwi_priGroup__C
  000013b0    000013b0    00000004   00000004    r-- .const:ti_sysbios_family_arm_m3_TaskSupport_stackAlignment__C
  000013b4    000013b4    00000004   00000004    r-- .const:ti_sysbios_heaps_HeapMem_E_memory__C
  000013b8    000013b8    00000004   00000004    r-- .const:ti_sysbios_heaps_HeapMem_Module__gateObj__C
  000013bc    000013bc    00000004   00000004    r-- .const:ti_sysbios_heaps_HeapMem_Object__count__C
  000013c0    000013c0    00000004   00000004    r-- .const:ti_sysbios_heaps_HeapMem_Object__table__C
  000013c4    000013c4    00000004   00000004    r-- .const:ti_sysbios_heaps_HeapMem_reqAlign__C
  000013c8    000013c8    00000004   00000004    r-- .const:ti_sysbios_knl_Clock_serviceMargin__C
  000013cc    000013cc    00000004   00000004    r-- .const:ti_sysbios_knl_Mailbox_Object__count__C
  000013d0    000013d0    00000004   00000004    r-- .const:ti_sysbios_knl_Mailbox_Object__table__C
  000013d4    000013d4    00000004   00000004    r-- .const:ti_sysbios_knl_Mailbox_maxTypeAlign__C
  000013d8    000013d8    00000004   00000004    r-- .const:ti_sysbios_knl_Queue_Object__count__C
  000013dc    000013dc    00000004   00000004    r-- .const:ti_sysbios_knl_Queue_Object__table__C
  000013e0    000013e0    00000004   00000004    r-- .const:ti_sysbios_knl_Swi_Object__count__C
  000013e4    000013e4    00000004   00000004    r-- .const:ti_sysbios_knl_Swi_Object__table__C
  000013e8    000013e8    00000004   00000004    r-- .const:ti_sysbios_knl_Swi_numPriorities__C
  000013ec    000013ec    00000004   00000004    r-- .const:ti_sysbios_knl_Task_Object__count__C
  000013f0    000013f0    00000004   00000004    r-- .const:ti_sysbios_knl_Task_Object__table__C
  000013f4    000013f4    00000004   00000004    r-- .const:ti_sysbios_knl_Task_allBlockedFunc__C
  000013f8    000013f8    00000004   00000004    r-- .const:ti_sysbios_knl_Task_defaultStackHeap__C
  000013fc    000013fc    00000004   00000004    r-- .const:ti_sysbios_knl_Task_defaultStackSize__C
  00001400    00001400    00000004   00000004    r-- .const:ti_sysbios_knl_Task_numConstructedTasks__C
  00001406    00001406    00000002   00000002    r-- .const:ti_sysbios_family_arm_cc26xx_Timer_Module__id__C
  00001408    00001408    00000002   00000002    r-- .const:ti_sysbios_family_arm_cc26xx_TimestampProvider_useClockTimer__C
  0000140a    0000140a    00000002   00000002    r-- .const:ti_sysbios_family_arm_m3_Hwi_Module__id__C
  0000140c    0000140c    00000002   00000002    r-- .const:ti_sysbios_gates_GateHwi_Module__id__C
  0000140e    0000140e    00000002   00000002    r-- .const:ti_sysbios_gates_GateMutex_Module__id__C
  00001410    00001410    00000002   00000002    r-- .const:ti_sysbios_heaps_HeapMem_Module__id__C
  00001412    00001412    00000002   00000002    r-- .const:ti_sysbios_knl_Task_initStackFlag__C
  00001414    00001414    00000001   00000001    r-- .const:ti_sysbios_knl_Clock_tickMode__C
  00001418    00001418    00000008   00000008    r-- .const:xdc_runtime_Startup_firstFxns__C
  00001420    00001420    00000008   00000008    r-- .const:xdc_runtime_Startup_lastFxns__C
  00001428    00001428    00000004   00000004    r-- .const:xdc_runtime_Assert_E_assertFailed__C
  0000142c    0000142c    00000004   00000004    r-- .const:xdc_runtime_Error_E_memory__C
  00001430    00001430    00000004   00000004    r-- .const:xdc_runtime_Error_policyFxn__C
  00001434    00001434    00000004   00000004    r-- .const:xdc_runtime_IGateProvider_Interface__BASE__C
  00001438    00001438    00000004   00000004    r-- .const:xdc_runtime_IHeap_Interface__BASE__C
  0000143c    0000143c    00000004   00000004    r-- .const:xdc_runtime_IModule_Interface__BASE__C
  00001440    00001440    00000004   00000004    r-- .const:xdc_runtime_Main_Module__diagsEnabled__C
  00001444    00001444    00000004   00000004    r-- .const:xdc_runtime_Main_Module__diagsIncluded__C
  00001448    00001448    00000004   00000004    r-- .const:xdc_runtime_Main_Module__diagsMask__C
  0000144c    0000144c    00000004   00000004    r-- .const:xdc_runtime_Memory_defaultHeapInstance__C
  00001450    00001450    00000004   00000004    r-- .const:xdc_runtime_Startup_execImpl__C
  00001454    00001454    00000004   00000004    r-- .const:xdc_runtime_Startup_maxPasses__C
  00001458    00001458    00000004   00000004    r-- .const:xdc_runtime_Startup_sfxnRts__C
  0000145c    0000145c    00000004   00000004    r-- .const:xdc_runtime_Startup_sfxnTab__C
  00001460    00001460    00000004   00000004    r-- .const:xdc_runtime_Startup_startModsFxn__C
  00001464    00001464    00000004   00000004    r-- .const:xdc_runtime_SysCallback_abortFxn__C
  00001468    00001468    00000004   00000004    r-- .const:xdc_runtime_SysCallback_exitFxn__C
  0000146c    0000146c    00000004   00000004    r-- .const:xdc_runtime_System_abortFxn__C
  00001470    00001470    00000004   00000004    r-- .const:xdc_runtime_System_exitFxn__C
  00001474    00001474    00000004   00000004    r-- .const:xdc_runtime_System_maxAtexitHandlers__C
  00001478    00001478    00000004   00000004    r-- .const:xdc_runtime_Text_charTab__C
  0000147c    0000147c    00000004   00000004    r-- .const:xdc_runtime_Text_nameEmpty__C
  00001480    00001480    00000004   00000004    r-- .const:xdc_runtime_Text_nameStatic__C
  00001484    00001484    00000004   00000004    r-- .const:xdc_runtime_Text_nameUnknown__C
  00001488    00001488    00000002   00000002    r-- .const:xdc_runtime_Main_Module__id__C
  0000148a    0000148a    00000002   00000002    r-- .const:xdc_runtime_Memory_Module__id__C
  0000148c    0000148c    00000002   00000002    r-- .const:xdc_runtime_Text_charCnt__C
  0000148e    0000148e    00000002   00000002    r-- .const:xdc_runtime_Text_isLoaded__C
  00001490    00001490    00000001   00000001    r-- .const:xdc_runtime_Error_policy__C
  00001494    00001494    00000004   00000004    r-- .const:ti_sysbios_rom_ROM_AONRTCChannelEnable
  00001498    00001498    00000004   00000004    r-- .const:ti_sysbios_rom_ROM_AONRTCCompareValueSet
  0000149c    0000149c    00000004   00000004    r-- .const:ti_sysbios_rom_ROM_AONRTCCurrentCompareValueGet
  000014a0    000014a0    00000004   00000004    r-- .const:ti_sysbios_rom_ROM_AONRTCEventClear
  000014a4    000014a4    00000004   00000004    r-- .const:ti_sysbios_rom_ROM_ti_sysbios_family_arm_cc26xx_Timer_getCount64__E
  000014a8    000014a8    00000004   00000004    r-- .const:ti_sysbios_rom_ROM_ti_sysbios_family_arm_cc26xx_Timer_getCurrentTick__E
  000014ac    000014ac    00000004   00000004    r-- .const:ti_sysbios_rom_ROM_ti_sysbios_family_arm_cc26xx_Timer_getMaxTicks__E
  000014b0    000014b0    00000004   00000004    r-- .const:ti_sysbios_rom_ROM_ti_sysbios_family_arm_cc26xx_Timer_initDevice__I
  000014b4    000014b4    00000004   00000004    r-- .const:ti_sysbios_rom_ROM_ti_sysbios_family_arm_cc26xx_Timer_setNextTick__E
  000014b8    000014b8    00000004   00000004    r-- .const:ti_sysbios_rom_ROM_ti_sysbios_family_arm_cc26xx_Timer_setThreshold__I
  000014bc    000014bc    00000004   00000004    r-- .const:ti_sysbios_rom_ROM_ti_sysbios_family_arm_cc26xx_Timer_start__E
  000014c0    000014c0    00000004   00000004    r-- .const:ti_sysbios_rom_ROM_ti_sysbios_family_arm_cc26xx_TimestampProvider_get32__E
  000014c4    000014c4    00000004   00000004    r-- .const:ti_sysbios_rom_ROM_xdc_runtime_Startup_getState__I
  000014c8    000014c8    00000004   00000004    r-- .const:ti_sysbios_rom_ROM_xdc_runtime_System_SupportProxy_abort__E
  000014cc    000014cc    00000004   00000004    r-- .const:ti_sysbios_rom_ROM_xdc_runtime_System_SupportProxy_exit__E
  000014d0    000014d0    00000004   00000004    r-- .const:ti_sysbios_gates_GateMutex_Instance_State_sem__O
  000014d4    000014d4    00000004   00000004    r-- .const:ti_sysbios_knl_Clock_Module_State_clockQ__O
  000014d8    000014d8    00000004   00000004    r-- .const:ti_sysbios_knl_Mailbox_Instance_State_dataQue__O
  000014dc    000014dc    00000004   00000004    r-- .const:ti_sysbios_knl_Mailbox_Instance_State_dataSem__O
  000014e0    000014e0    00000004   00000004    r-- .const:ti_sysbios_knl_Mailbox_Instance_State_freeQue__O
  000014e4    000014e4    00000004   00000004    r-- .const:ti_sysbios_knl_Mailbox_Instance_State_freeSem__O
  000014e8    000014e8    00000004   00000004    r-- .const:ti_sysbios_knl_Semaphore_Instance_State_pendQ__O
  000014ec    000014ec    00000004   00000004    r-- .const:ti_sysbios_knl_Task_Module_State_inactiveQ__O
  000014f0    000014f0    0000a968   0000a968    r-x .text
  0000be58    0000be58    00004a23   00004a23    r-- .const
0001ffa8    0001ffa8    00000058   00000058    r--
  0001ffa8    0001ffa8    00000058   00000058    r-- .ccfg
20000100    20000100    00000104   00000000    rw-
  20000100    20000100    00000044   00000000    rw- .data:ti_sysbios_knl_Task_Module__state__V
  20000144    20000144    00000034   00000000    rw- .data:ti_sysbios_family_arm_m3_Hwi_Module__state__V
  20000178    20000178    0000002c   00000000    rw- .data:ti_sysbios_knl_Clock_Module__state__V
  200001a4    200001a4    00000024   00000000    rw- .data:ti_sysbios_BIOS_Module__state__V
  200001c8    200001c8    0000001c   00000000    rw- .data:ti_sysbios_knl_Swi_Module__state__V
  200001e4    200001e4    00000008   00000000    rw- .data:ti_sysbios_family_arm_cc26xx_Timer_Module__state__V
  200001ec    200001ec    00000004   00000000    rw- .data:ti_sysbios_family_arm_cc26xx_TimestampProvider_Module__state__V
  200001f0    200001f0    00000008   00000000    rw- .data:xdc_runtime_Startup_Module__state__V
  200001f8    200001f8    00000008   00000000    rw- .data:xdc_runtime_System_Module__state__V
  20000200    20000200    00000004   00000000    rw- .data:xdc_runtime_Memory_Module__state__V
20000280    20000280    00002f50   00000000    rw-
  20000280    20000280    00002f50   00000000    rw- .bss
200031d0    200031d0    00001000   00000000    r--
  200031d0    200031d0    00001000   00000000    r-- .priheap
200041d0    200041d0    00000997   00000000    rw-
  200041d0    200041d0    00000997   00000000    rw- .data
20004c00    20004c00    00000400   00000000    rw-
  20004c00    20004c00    00000400   00000000    rw- .stack


SECTION ALLOCATION MAP

 output                                  attributes/
section   page    origin      length       input sections
--------  ----  ----------  ----------   ----------------
.text      0    000014f0    0000a968     
                  000014f0    0000044c     rf_multiMode_cc13x0.aem3 : RFCC26XX_multiMode.oem3 (.text:fsmActiveState)
                  0000193c    000003c4     EasyLink.obj (.text:EasyLink_init)
                  00001d00    00000324     rtsv7M3_T_le_eabi.lib : trgdrv.obj (.text)
                  00002024    0000030c     drivers_cc13x0.aem3 : PowerCC26XX_calibrateRCOSC.oem3 (.text:PowerCC26XX_auxISR)
                  00002330    00000248     rtsv7M3_T_le_eabi.lib : vla_alloc.obj (.text)
                  00002578    00000228     driverlib.lib : sys_ctrl.obj (.text:NOROM_SysCtrlSetRechargeBeforePowerDown)
                  000027a0    0000021c     drivers_cc13x0.aem3 : PowerCC26XX.oem3 (.text:Power_sleep)
                  000029bc    00000200     rf_multiMode_cc13x0.aem3 : RFCC26XX_multiMode.oem3 (.text:RF_open)
                  00002bbc    000001f4     rtsv7M3_T_le_eabi.lib : ull_div_t2.obj (.text)
                  00002db0    000001e4     main.obj (.text:LSM9DS1init)
                  00002f94    000001a4     EasyLink.obj (.text:EasyLink_setRfPwr)
                  00003138    0000019c     rf_multiMode_cc13x0.aem3 : RFCC26XX_multiMode.oem3 (.text:fsmSetupState)
                  000032d4    00000190     drivers_cc13x0.aem3 : PowerCC26XX_calibrateRCOSC.oem3 (.text:PowerCC26XX_doCalibrate)
                  00003464    0000018c                         : PINCC26XX.oem3 (.text:PIN_init)
                  000035f0    00000188     EasyLink.obj (.text:rxDoneCallback)
                  00003778    00000180     main.obj (.text:initGyro)
                  000038f8    00000170     EasyLink.obj (.text:EasyLink_receiveAsync)
                  00003a68    00000164     drivers_cc13x0.aem3 : UARTCC26XX.oem3 (.text:UARTCC26XX_open)
                  00003bcc    00000158     rf_multiMode_cc13x0.aem3 : RFCC26XX_multiMode.oem3 (.text:RF_postCmd)
                  00003d24    00000154     drivers_cc13x0.aem3 : I2CCC26XX.oem3 (.text:I2CCC26XX_open)
                  00003e78    00000154     rf_multiMode_cc13x0.aem3 : RFCC26XX_multiMode.oem3 (.text:radioOpDoneCb)
                  00003fcc    00000150                              : RFCC26XX_multiMode.oem3 (.text:abortCmd)
                  0000411c    00000150     smartrf_settings_predefined.obj (.text:rf_patch_mce_genook)
                  0000426c    00000148     rf_multiMode_cc13x0.aem3 : RFCC26XX_multiMode.oem3 (.text:fsmChangePhyState)
                  000043b4    0000013c     EasyLink.obj (.text:EasyLink_transmit)
                  000044f0    00000138     hello_pem3.oem3 (.text:ti_uia_loggers_LoggerStopMode_writeMemoryRange__E)
                  00004628    00000134     main.obj (.text:initAccel)
                  0000475c    00000130     driverlib.lib : setup_rom.obj (.text:NOROM_SetupAfterColdResetWakeupFromShutDownCfg3)
                  0000488c    0000012c     drivers_cc13x0.aem3 : PowerCC26XX.oem3 (.text:Power_init)
                  000049b8    00000128     smartrf_settings.obj (.text:rf_patch_rfe_genfsk)
                  00004ae0    00000128     smartrf_settings_predefined.obj (.text:rf_patch_rfe_genfsk)
                  00004c08    00000128     smartrf_settings_predefined.obj (.text:rf_patch_rfe_lrm)
                  00004d30    00000128     smartrf_settings_predefined.obj (.text:rf_patch_rfe_sl_longrange)
                  00004e58    00000120     main.obj (.text:rxDoneCb)
                  00004f78    0000011c     rf_multiMode_cc13x0.aem3 : RFCC26XX_multiMode.oem3 (.text:RF_close)
                  00005094    00000118     drivers_cc13x0.aem3 : UARTCC26XX.oem3 (.text:UARTCC26XX_read)
                  000051ac    00000118     main.obj (.text:initMag)
                  000052c4    00000114     smartrf_settings_predefined.obj (.text:rf_patch_mce_hsp_4mbps)
                  000053d8    00000110     drivers_cc13x0.aem3 : I2CCC26XX.oem3 (.text:I2CCC26XX_hwiFxn)
                  000054e8    0000010c     hello_pem3.oem3 (.text:ti_uia_loggers_LoggerStopMode_write8__E)
                  000055f4    0000010a     drivers_cc13x0.aem3 : UARTCC26XX.oem3 (.text:UARTCC26XX_hwiIntFxn)
                  000056fe    00000002                         : PWMTimerCC26XX.oem3 (.text:PWMTimerCC26XX_init)
                  00005700    00000108     rf_multiMode_cc13x0.aem3 : RFCC26XX_multiMode.oem3 (.text:fsmPowerUpState)
                  00005808    00000108                              : RFCC26XX_multiMode.oem3 (.text:hwiFxnCpe0Active)
                  00005910    000000fc     drivers_cc13x0.aem3 : UARTCC26XX.oem3 (.text:UARTCC26XX_write)
                  00005a0c    000000fc     main.obj (.text:adcTaskFunc)
                  00005b08    000000fc     main.obj (.text:gpsFunc)
                  00005c04    000000f8     main.obj (.text:semaphoreSetup)
                  00005cfc    000000f4     hello_pem3.oem3 (.text:ti_uia_loggers_LoggerStopMode_write4__E)
                  00005df0    000000f0     driverlib.lib : setup_rom.obj (.text:NOROM_SetupAfterColdResetWakeupFromShutDownCfg2)
                  00005ee0    000000ec     drivers_cc13x0.aem3 : PWMTimerCC26XX.oem3 (.text:PWMTimerCC26XX_open)
                  00005fcc    000000e8     hello_pem3.oem3 (.text:ti_uia_loggers_LoggerStopMode_write1__E)
                  000060b4    000000e8     hello_pem3.oem3 (.text:ti_uia_loggers_LoggerStopMode_write2__E)
                  0000619c    000000e0     main.obj (.text:txDataTaskFunc)
                  0000627c    000000dc     driverlib.lib : rfc.obj (.text:NOROM_RFCOverrideUpdate)
                  00006358    000000dc     drivers_cc13x0.aem3 : PINCC26XX.oem3 (.text:PINCC26XX_setIoCfg)
                  00006434    000000d8     EasyLink.obj (.text:EasyLink_enableRxAddrFilter)
                  0000650c    000000d8     smartrf_settings_predefined.obj (.text:rf_patch_rfe_genook)
                  000065e4    000000d8     smartrf_settings_predefined.obj (.text:rf_patch_rfe_hsp_4mbps)
                  000066bc    000000d8     hello_pem3.oem3 (.text:ti_uia_loggers_LoggerStopMode_write0__E)
                  00006794    000000d4     driverlib.lib : rfc.obj (.text:NOROM_RFCRfTrimRead)
                  00006868    000000d0     dpl_cc13x0.aem3 : PowerCC26XX_tirtos.oem3 (.text:PowerCC26XX_standbyPolicy)
                  00006938    000000c4     drivers_cc13x0.aem3 : ADCCC26XX.oem3 (.text:ADCCC26XX_convert)
                  000069fc    000000c4     driverlib.lib : setup.obj (.text:TrimAfterColdResetWakeupFromShutDown)
                  00006ac0    000000c4     smartrf_settings_predefined.obj (.text:rf_patch_mce_sl_longrange)
                  00006b84    000000c4     main.obj (.text:rxBeaconFunc)
                  00006c48    000000c0     drivers_cc13x0.aem3 : I2CCC26XX.oem3 (.text:I2CCC26XX_transfer)
                  00006d08    000000c0     driverlib.lib : aux_adc.obj (.text:NOROM_AUXADCEnableSync)
                  00006dc8    000000bc     drivers_cc13x0.aem3 : GPTimerCC26XX.oem3 (.text:GPTimerCC26XX_open)
                  00006e84    000000bc     main.obj (.text:I2CreadBytes)
                  00006f40    000000bc     drivers_cc13x0.aem3 : PowerCC26XX.oem3 (.text:Power_releaseDependency)
                  00006ffc    000000bc                         : UARTCC26XX.oem3 (.text:UARTCC26XX_initHw)
                  000070b8    000000b4                         : PowerCC26XX.oem3 (.text:Power_setDependency)
                  0000716c    000000a8     driverlib.lib : setup.obj (.text:NOROM_SetupTrimDevice)
                  00007214    000000a8     main.obj (.text:pwmTaskFunc)
                  000072bc    000000a4     driverlib.lib : setup_rom.obj (.text:NOROM_SetupAfterColdResetWakeupFromShutDownCfg1)
                  00007360    000000a4     rf_multiMode_cc13x0.aem3 : RFCC26XX_multiMode.oem3 (.text:RF_dispatchCmd)
                  00007404    000000a0     drivers_cc13x0.aem3 : GPTimerCC26XX.oem3 (.text:GPTimerCC26XX_close)
                  000074a4    000000a0     auto_init.aem3 : auto_init.oem3 (.text)
                  00007544    0000009c     rf_multiMode_cc13x0.aem3 : RFCC26XX_multiMode.oem3 (.text:RF_issueRadioFreeCb)
                  000075e0    0000009c     drivers_cc13x0.aem3 : WatchdogCC26XX.oem3 (.text:WatchdogCC26XX_open)
                  0000767c    0000009c     rf_multiMode_cc13x0.aem3 : RFCC26XX_multiMode.oem3 (.text:hwiFxnCpe0PowerFsm)
                  00007718    0000009c     rtsv7M3_T_le_eabi.lib : memcpy_t2.obj (.text)
                  000077b4    0000009c     rf_multiMode_cc13x0.aem3 : RFCC26XX_multiMode.oem3 (.text:swiFxnHw)
                  00007850    00000098     drivers_cc13x0.aem3 : PINCC26XX.oem3 (.text:PIN_open)
                  000078e8    00000098                         : UARTCC26XX.oem3 (.text:UARTCC26XX_initIO)
                  00007980    00000098     rom_sysbios.aem3 : rom_sysbios.obj (.text:ti_sysbios_knl_Clock_workFuncDynamic__E)
                  00007a18    00000094     EasyLink.obj (.text:EasyLink_abort)
                  00007aac    00000094     driverlib.lib : aux_adc.obj (.text:NOROM_AUXADCDisable)
                  00007b40    00000094     main.obj (.text:readAccel)
                  00007bd4    00000094     main.obj (.text:readGyro)
                  00007c68    00000094     drivers_cc13x0.aem3 : UARTCC26XX.oem3 (.text:writeFinishedDoCallback)
                  00007cfc    00000090                         : I2CCC26XX.oem3 (.text:I2CCC26XX_cancel)
                  00007d8c    00000090     ti.uia.loggers.aem3 : LoggerStopMode.oem3 (.text:ti_uia_loggers_LoggerStopMode_initQueueDescriptor__E)
                  00007e1c    0000008c     drivers_cc13x0.aem3 : I2CCC26XX.oem3 (.text:I2CCC26XX_primeTransfer)
                  00007ea8    0000008c     rf_multiMode_cc13x0.aem3 : RFCC26XX_multiMode.oem3 (.text:RF_pendCmd)
                  00007f34    0000008c     drivers_cc13x0.aem3 : UARTCC26XX.oem3 (.text:UARTCC26XX_close)
                  00007fc0    0000008c                         : UARTCC26XX.oem3 (.text:UARTCC26XX_writeCancel)
                  0000804c    00000088                         : ADCCC26XX.oem3 (.text:ADCCC26XX_open)
                  000080d4    00000088                         : PowerCC26XX.oem3 (.text:disableLFClockQualifiers)
                  0000815c    00000084                         : PowerCC26XX.oem3 (.text:switchXOSCHFclockFunc)
                  000081e0    00000080                         : PWMTimerCC26XX.oem3 (.text:PWMTimerCC26XX_setPeriod)
                  00008260    00000080     main.obj (.text:magTaskFunc)
                  000082e0    0000007c     main.obj (.text:constrainScales)
                  0000835c    0000007a     rtsv7M3_T_le_eabi.lib : memset_t2.obj (.text)
                  000083d6    00000002     drivers_cc13x0.aem3 : WatchdogCC26XX.oem3 (.text:WatchdogCC26XX_close)
                  000083d8    00000078     main.obj (.text:LSM9DS1begin)
                  00008450    00000078     main.obj (.text:pinCallback)
                  000084c8    00000078     main.obj (.text:pwmSetup)
                  00008540    00000078     drivers_cc13x0.aem3 : UARTCC26XX.oem3 (.text:writeTxFifoFlush)
                  000085b8    00000074     driverlib.lib : setup_rom.obj (.text:NOROM_SetupSetVddrLevel)
                  0000862c    00000074     main.obj (.text:configInt)
                  000086a0    00000074     rom_sysbios.aem3 : rom_sysbios.obj (.text:ti_sysbios_family_arm_cc26xx_Timer_start__E)
                  00008714    00000074     ti.uia.runtime.aem3 : QueueDescriptor.oem3 (.text:ti_uia_runtime_QueueDescriptor_addToList__E)
                  00008788    0000006c     drivers_cc13x0.aem3 : PowerCC26XX_calibrateRCOSC.oem3 (.text:PowerCC26XX_initiateCalibration)
                  000087f4    00000068                         : I2CCC26XX.oem3 (.text:I2CCC26XX_close)
                  0000885c    00000068     main.obj (.text:I2CreadByte)
                  000088c4    00000068     main.obj (.text:I2CwriteByte)
                  0000892c    00000068     driverlib.lib : setup_rom.obj (.text:NOROM_SetupGetTrimForAmpcompCtrl)
                  00008994    00000068                   : setup_rom.obj (.text:NOROM_SetupGetTrimForAnabypassValue1)
                  000089fc    00000068                   : sys_ctrl.obj (.text:NOROM_SysCtrl_DCDC_VoltageConditionalControl)
                  00008a64    00000068     drivers_cc13x0.aem3 : UARTCC26XX.oem3 (.text:UARTCC26XX_readCancel)
                  00008acc    00000068     rtsv7M3_T_le_eabi.lib : copy_decompress_lzss.obj (.text:decompress:lzss)
                  00008b34    00000068     rf_multiMode_cc13x0.aem3 : RFCC26XX_multiMode.oem3 (.text:flushPendCmd)
                  00008b9c    00000068                              : RFCC26XX_multiMode.oem3 (.text:fsmXOSCState)
                  00008c04    00000068     rtsv7M3_T_le_eabi.lib : trgmsg.obj (.text)
                  00008c6c    00000066     ti.uia.loggers.aem3 : LoggerStopMode.oem3 (.text:ti_uia_loggers_LoggerStopMode_flush__E)
                  00008cd2    00000002     rf_multiMode_cc13x0.aem3 : RFCC26XX_multiMode.oem3 (.text:defaultCallback)
                  00008cd4    00000064     driverlib.lib : osc.obj (.text:NOROM_OSCHF_AttemptToSwitchToXosc)
                  00008d38    00000064     drivers_cc13x0.aem3 : PINCC26XX.oem3 (.text:PIN_add)
                  00008d9c    00000064                         : PowerCC26XX.oem3 (.text:configureXOSCHF)
                  00008e00    00000064     rf_multiMode_cc13x0.aem3 : RFCC26XX_multiMode.oem3 (.text:dispatchOpWhen)
                  00008e64    00000064     rom_sysbios.aem3 : rom_sysbios.obj (.text:ti_sysbios_heaps_HeapMem_initPrimary__I)
                  00008ec8    00000062     rf_multiMode_cc13x0.aem3 : RFCC26XX_multiMode.oem3 (.text:syncCb)
                  00008f2a    00000002     drivers_cc13x0.aem3 : PowerCC26XX.oem3 (.text:emptyClockFunc)
                  00008f2c    00000060     driverlib.lib : osc.obj (.text:NOROM_OSCClockSourceSet)
                  00008f8c    00000060     drivers_cc13x0.aem3 : UARTCC26XX.oem3 (.text:UARTCC26XX_control)
                  00008fec    00000060     smartrf_settings.obj (.text:configureGenfskPatch)
                  0000904c    00000060     smartrf_settings_predefined.obj (.text:configureGenfskPatch)
                  000090ac    00000060     smartrf_settings_predefined.obj (.text:configureGenookPatch)
                  0000910c    00000060     smartrf_settings_predefined.obj (.text:configureLrmPatch)
                  0000916c    00000060     smartrf_settings_predefined.obj (.text:configureSl_longrangePatch)
                  000091cc    0000005c     driverlib.lib : sys_ctrl.obj (.text:NOROM_SysCtrlAdjustRechargeAfterPowerDown)
                  00009228    0000005c     drivers_cc13x0.aem3 : PowerCC26XX_calibrateRCOSC.oem3 (.text:PowerCC26XX_RCOSC_clockFunc)
                  00009284    0000005c                         : PowerCC26XX.oem3 (.text:PowerCC26XX_calibrate)
                  000092e0    0000005c     main.obj (.text:createRFRXTasks)
                  0000933c    0000005c     rf_multiMode_cc13x0.aem3 : RFCC26XX_multiMode.oem3 (.text:ratChanFree)
                  00009398    0000005c     hello_pem3.oem3 (.text:xdc_runtime_Startup_getState__I)
                  000093f4    00000058     drivers_cc13x0.aem3 : GPTimerCC26XX.oem3 (.text:GPTimerCC26XX_stop)
                  0000944c    00000058                         : I2CCC26XX.oem3 (.text:I2CCC26XX_swiFxn)
                  000094a4    00000058                         : PINCC26XX.oem3 (.text:PIN_remove)
                  000094fc    00000058     rf_multiMode_cc13x0.aem3 : RFCC26XX_multiMode.oem3 (.text:applyRfCorePatch)
                  00009554    00000054                              : RFCC26XX_multiMode.oem3 (.text:RF_getCurrentTime)
                  000095a8    00000054     main.obj (.text:calcaRes)
                  000095fc    00000054     main.obj (.text:calcmRes)
                  00009650    00000054     rf_multiMode_cc13x0.aem3 : RFCC26XX_multiMode.oem3 (.text:hwiFxnHw)
                  000096a4    00000054     rtsv7M3_T_le_eabi.lib : exit.obj (.text)
                  000096f8    00000050     driverlib.lib : setup_rom.obj (.text:NOROM_SetupSetCacheModeAccordingToCcfgSetting)
                  00009748    00000050     main.obj (.text:main)
                  00009798    00000050     main.obj (.text:readMag)
                  000097e8    00000050     drivers_cc13x0.aem3 : UARTCC26XX.oem3 (.text:startTxFifoEmptyClk)
                  00009838    0000004c                         : GPTimerCC26XX.oem3 (.text:GPTimerCC26XX_start)
                  00009884    0000004c                         : I2CCC26XX.oem3 (.text:I2CCC26XX_initHw)
                  000098d0    0000004c                         : PWMTimerCC26XX.oem3 (.text:PWMTimerCC26XX_getdutyCounts)
                  0000991c    0000004c     rf_multiMode_cc13x0.aem3 : RFCC26XX_multiMode.oem3 (.text:RF_wakeupNotifyFxn)
                  00009968    0000004c     main.obj (.text:gyroTaskFunc)
                  000099b4    0000004c     rtsv7M3_T_le_eabi.lib : cpy_tbl.obj (.text)
                  00009a00    0000004c     ti.uia.loggers.aem3 : LoggerStopMode.oem3 (.text:ti_uia_loggers_LoggerStopMode_Module_startup__E)
                  00009a4c    00000048     dpl_cc13x0.aem3 : ClockP_tirtos.oem3 (.text:ClockP_construct)
                  00009a94    00000048     drivers_cc13x0.aem3 : PINCC26XX.oem3 (.text:PIN_setOutputEnable)
                  00009adc    00000048     main.obj (.text:calcgRes)
                  00009b24    00000048     main.obj (.text:clockSetup)
                  00009b6c    00000044     drivers_cc13x0.aem3 : PINCC26XX.oem3 (.text:PIN_swi)
                  00009bb0    00000044     rf_multiMode_cc13x0.aem3 : RFCC26XX_multiMode.oem3 (.text:RF_releasePowerConstraint)
                  00009bf4    00000044     drivers_cc13x0.aem3 : RingBuf.oem3 (.text:RingBuf_put)
                  00009c38    00000044     main.obj (.text:adcSetup)
                  00009c7c    00000044     boot.aem3 : boot.oem3 (.text)
                  00009cc0    00000044     drivers_cc13x0.aem3 : PowerCC26XX.oem3 (.text:notify)
                  00009d04    00000044     ti.uia.loggers.aem3 : LoggerStopMode.oem3 (.text:ti_uia_loggers_LoggerStopMode_initBuffer__I)
                  00009d48    00000044     rom_sysbios.aem3 : rom_sysbios.obj (.text:xdc_runtime_SysMin_flush__E)
                  00009d8c    00000040     drivers_cc13x0.aem3 : ADCCC26XX.oem3 (.text:ADCCC26XX_convertToMicroVolts)
                  00009dcc    00000040                         : ADC.oem3 (.text:ADC_init)
                  00009e0c    00000040                         : ADC.oem3 (.text:ADC_open)
                  00009e4c    00000040     dpl_cc13x0.aem3 : HwiP_tirtos.oem3 (.text:HwiP_construct)
                  00009e8c    00000040     drivers_cc13x0.aem3 : I2C.oem3 (.text:I2C_init)
                  00009ecc    00000040                         : I2C.oem3 (.text:I2C_open)
                  00009f0c    00000040                         : PWMTimerCC26XX.oem3 (.text:PWMTimerCC26XX_setDuty)
                  00009f4c    00000040                         : PWM.oem3 (.text:PWM_init)
                  00009f8c    00000040                         : PWM.oem3 (.text:PWM_open)
                  00009fcc    00000040                         : UART.oem3 (.text:UART_init)
                  0000a00c    00000040                         : UART.oem3 (.text:UART_open)
                  0000a04c    00000040                         : Watchdog.oem3 (.text:Watchdog_init)
                  0000a08c    00000040                         : Watchdog.oem3 (.text:Watchdog_open)
                  0000a0cc    00000040     main.obj (.text:accelTaskFunc)
                  0000a10c    00000040     rom_sysbios.aem3 : rom_sysbios.obj (.text:ti_sysbios_family_arm_cc26xx_Timer_setThreshold__I)
                  0000a14c    0000003e     drivers_cc13x0.aem3 : RingBuf.oem3 (.text:RingBuf_get)
                  0000a18a    0000003e     hello_pem3.oem3 (.text:realloc)
                  0000a1c8    0000003c     drivers_cc13x0.aem3 : ADCCC26XX.oem3 (.text:ADCCC26XX_close)
                  0000a204    0000003c     driverlib.lib : chipinfo.obj (.text:NOROM_ChipInfo_GetHwRevision)
                  0000a240    0000003c                   : osc.obj (.text:NOROM_OSC_HPOSCRelativeFrequencyOffsetGet)
                  0000a27c    0000003c                   : rfc.obj (.text:NOROM_RFCSynthPowerDown)
                  0000a2b8    0000003c     drivers_cc13x0.aem3 : PowerCC26XX.oem3 (.text:PowerCC26XX_isStableXOSC_HF)
                  0000a2f4    0000003c                         : PowerCC26XX.oem3 (.text:PowerCC26XX_switchXOSC_HF)
                  0000a330    0000003c     rf_multiMode_cc13x0.aem3 : RFCC26XX_multiMode.oem3 (.text:RF_runCmd)
                  0000a36c    0000003c     dpl_cc13x0.aem3 : SwiP_tirtos.oem3 (.text:SwiP_construct)
                  0000a3a8    0000003c     rom_sysbios.aem3 : rom_sysbios.obj (.text:ti_sysbios_family_arm_m3_Hwi_construct2__E)
                  0000a3e4    00000038     drivers_cc13x0.aem3 : PINCC26XX.oem3 (.text:PIN_setOutputValue)
                  0000a41c    00000038     rf_multiMode_cc13x0.aem3 : RFCC26XX_multiMode.oem3 (.text:Q_end)
                  0000a454    00000038                              : RFCC26XX_multiMode.oem3 (.text:RF_checkCmdFsError)
                  0000a48c    00000038     drivers_cc13x0.aem3 : UARTCC26XX.oem3 (.text:UARTCC26XX_swiIntFxn)
                  0000a4c4    00000038     main.obj (.text:createADCTask)
                  0000a4fc    00000038     main.obj (.text:createAccelTask)
                  0000a534    00000038     main.obj (.text:createGPSTask)
                  0000a56c    00000038     main.obj (.text:createGyroTask)
                  0000a5a4    00000038     main.obj (.text:createMagTask)
                  0000a5dc    00000038     main.obj (.text:createPWMTask)
                  0000a614    00000038     main.obj (.text:createRFTXTasks)
                  0000a64c    00000038     main.obj (.text:pinSetup)
                  0000a684    00000038     drivers_cc13x0.aem3 : UARTCC26XX.oem3 (.text:readData)
                  0000a6bc    00000038     rom_sysbios.aem3 : rom_sysbios.obj (.text:ti_sysbios_family_arm_cc26xx_Timer_getCurrentTick__E)
                  0000a6f4    00000038     drivers_cc13x0.aem3 : UARTCC26XX.oem3 (.text:writeData)
                  0000a72c    00000038     rom_sysbios.aem3 : rom_sysbios.obj (.text:xdc_runtime_SysMin_putch__E)
                  0000a764    00000034     drivers_cc13x0.aem3 : GPTimerCC26XX.oem3 (.text:GPTimerCC26XXSetLoadMatch)
                  0000a798    00000034     driverlib.lib : aux_adc.obj (.text:NOROM_AUXADCDisableInputScaling)
                  0000a7cc    00000034                   : osc.obj (.text:NOROM_OSCHF_SwitchToRcOscTurnOffXosc)
                  0000a800    00000034     drivers_cc13x0.aem3 : PINCC26XX.oem3 (.text:PIN_setConfig)
                  0000a834    00000034                         : PowerCC26XX.oem3 (.text:Power_releaseConstraint)
                  0000a868    00000034     rf_multiMode_cc13x0.aem3 : RFCC26XX_multiMode.oem3 (.text:Q_push)
                  0000a89c    00000034     rom_sysbios.aem3 : rom_sysbios.obj (.text:ti_sysbios_family_arm_cc26xx_Timer_initDevice__I)
                  0000a8d0    00000034     ti.uia.loggers.aem3 : LoggerStopMode.oem3 (.text:ti_uia_loggers_LoggerStopMode_reset__E)
                  0000a904    00000034     main.obj (.text:wdtSetup)
                  0000a938    00000032     rom_sysbios.aem3 : rom_sysbios.obj (.text:ti_sysbios_family_arm_cc26xx_Timer_setNextTick__E)
                  0000a96a    00000002     smartrf_settings.obj (.text:enterGenfskSysPatch)
                  0000a96c    00000030     drivers_cc13x0.aem3 : GPTimerCC26XX.oem3 (.text:GPTimerCC26XX_configureDebugStall)
                  0000a99c    00000030     driverlib.lib : chipinfo.obj (.text:NOROM_ChipInfo_GetChipType)
                  0000a9cc    00000030                   : setup_rom.obj (.text:NOROM_SetupSetAonRtcSubSecInc)
                  0000a9fc    00000030     drivers_cc13x0.aem3 : PowerCC26XX.oem3 (.text:Power_setConstraint)
                  0000aa2c    00000030     driverlib.lib : adi.obj (.text:SafeHapiAuxAdiSelect)
                  0000aa5c    00000030     drivers_cc13x0.aem3 : WatchdogCC26XX.oem3 (.text:WatchdogCC26XX_setReload)
                  0000aa8c    00000030     rf_multiMode_cc13x0.aem3 : RFCC26XX_multiMode.oem3 (.text:clkPowerUpFxn)
                  0000aabc    00000030     main.obj (.text:initI2C)
                  0000aaec    00000030     drivers_cc13x0.aem3 : UARTCC26XX.oem3 (.text:readData2RingBuf)
                  0000ab1c    00000030     hello_pem3.oem3 (.text:ti_sysbios_BIOS_atExitFunc__I)
                  0000ab4c    00000030     hello_pem3.oem3 (.text:ti_sysbios_BIOS_startFunc__I)
                  0000ab7c    00000030     hello_pem3.oem3 (.text:ti_uia_loggers_LoggerStopMode_Object__create__S)
                  0000abac    00000030     rom_sysbios.aem3 : rom_sysbios.obj (.text:xdc_runtime_SysMin_abort__E)
                  0000abdc    0000002e     hello_pem3.oem3 (.text:ti_sysbios_rts_gnu_MemAlloc_alloc)
                  0000ac0a    00000002     smartrf_settings_predefined.obj (.text:enterGenfskSysPatch)
                  0000ac0c    0000002c     driverlib.lib : ddi.obj (.text:NOROM_DDI32RegWrite)
                  0000ac38    0000002c                   : osc.obj (.text:NOROM_OSCClockSourceGet)
                  0000ac64    0000002c                   : rfc.obj (.text:NOROM_RFCCPEPatchReset)
                  0000ac90    0000002c                   : setup_rom.obj (.text:NOROM_SetupGetTrimForRadcExtCfg)
                  0000acbc    0000002c     drivers_cc13x0.aem3 : PINCC26XX.oem3 (.text:PINCC26XX_setMux)
                  0000ace8    0000002c                         : PWMTimerCC26XX.oem3 (.text:PWMTimerCC26XX_close)
                  0000ad14    0000002c     dpl_cc13x0.aem3 : SemaphoreP_tirtos.oem3 (.text:SemaphoreP_constructBinary)
                  0000ad40    0000002c     rf_multiMode_cc13x0.aem3 : RFCC26XX_multiMode.oem3 (.text:getCmd)
                  0000ad6c    0000002c     rom_sysbios.aem3 : rom_sysbios.obj (.text:ti_sysbios_knl_Clock_getTicksUntilInterrupt__E)
                  0000ad98    0000002a     display.aem3 : Display.oem3 (.text:Display_doPrintf)
                  0000adc2    0000002a     rom_sysbios.aem3 : rom_sysbios.obj (.text:ti_sysbios_knl_Clock_getTimeout__E)
                  0000adec    00000028     driverlib.lib : aon_batmon.obj (.text:NOROM_AONBatMonTemperatureGetDegC)
                  0000ae14    00000028     drivers_cc13x0.aem3 : PowerCC26XX.oem3 (.text:Power_registerNotify)
                  0000ae3c    00000028     driverlib.lib : adi.obj (.text:SafeHapiVoid)
                  0000ae64    00000028     drivers_cc13x0.aem3 : WatchdogCC26XX.oem3 (.text:WatchdogCC26XX_convertMsToTicks)
                  0000ae8c    00000024     driverlib.lib : rfc.obj (.text:NOROM_RFCDoorbellSendTo)
                  0000aeb0    00000024     drivers_cc13x0.aem3 : PINCC26XX.oem3 (.text:PINCC26XX_getPinCount)
                  0000aed4    00000024                         : PWMTimerCC26XX.oem3 (.text:PWMTimerCC26XX_start)
                  0000aef8    00000024     rf_multiMode_cc13x0.aem3 : RFCC26XX_multiMode.oem3 (.text:allocCmd)
                  0000af1c    00000024     main.obj (.text:mReadBytes)
                  0000af40    00000024     main.obj (.text:rxRestartFunc)
                  0000af64    00000024     hello_pem3.oem3 (.text:ti_sysbios_BIOS_registerRTSLock__I)
                  0000af88    00000024     hello_pem3.oem3 (.text:ti_sysbios_BIOS_removeRTSLock__I)
                  0000afac    00000024     rom_sysbios.aem3 : rom_sysbios.obj (.text:ti_sysbios_family_arm_cc26xx_Timer_getMaxTicks__E)
                  0000afd0    00000024     main.obj (.text:xgReadBytes)
                  0000aff4    00000022     drivers_cc13x0.aem3 : List.oem3 (.text:List_put)
                  0000b016    00000022     driverlib.lib : aux_adc.obj (.text:NOROM_AUXADCAdjustValueForGainAndOffset)
                  0000b038    00000022     hello_pem3.oem3 (.text:xdc_runtime_SysMin_output__I)
                  0000b05a    00000002     smartrf_settings_predefined.obj (.text:enterGenookSysPatch)
                  0000b05c    00000020     driverlib.lib : rfc.obj (.text:NOROM_RFCAdi3VcoLdoVoltageMode)
                  0000b07c    00000020                   : setup_rom.obj (.text:NOROM_SetupGetTrimForXoscHfCtl)
                  0000b09c    00000020     drivers_cc13x0.aem3 : PWMTimerCC26XX.oem3 (.text:PWMTimerCC26XX_stop)
                  0000b0bc    00000020     dpl_cc13x0.aem3 : PowerCC26XX_tirtos.oem3 (.text:PowerCC26XX_schedulerDisable)
                  0000b0dc    00000020                     : PowerCC26XX_tirtos.oem3 (.text:PowerCC26XX_schedulerRestore)
                  0000b0fc    00000020     drivers_cc13x0.aem3 : PowerCC26XX.oem3 (.text:Power_unregisterNotify)
                  0000b11c    00000020     main.obj (.text:Serial_RxDataCallback)
                  0000b13c    00000020     main.obj (.text:mWriteByte)
                  0000b15c    00000020     hello_pem3.oem3 (.text:ti_sysbios_BIOS_rtsLock__I)
                  0000b17c    00000020     rom_sysbios.aem3 : rom_sysbios.obj (.text:ti_sysbios_family_arm_cc26xx_Timer_dynamicStub__E)
                  0000b19c    00000020                      : rom_sysbios.obj (.text:ti_sysbios_knl_Clock_stop__E)
                  0000b1bc    00000020     hello_pem3.oem3 (.text:ti_uia_loggers_LoggerStopMode_Object__delete__S)
                  0000b1dc    00000020     rom_sysbios.aem3 : rom_sysbios.obj (.text:xdc_runtime_SysMin_Module_startup__E)
                  0000b1fc    00000020     main.obj (.text:xgWriteByte)
                  0000b21c    0000001e     drivers_cc13x0.aem3 : PINCC26XX.oem3 (.text:PIN_close)
                  0000b23a    0000001e                         : PowerCC26XX.oem3 (.text:Power_getTransitionLatency)
                  0000b258    0000001c     driverlib.lib : aux_adc.obj (.text:NOROM_AUXADCGetAdjustmentGain)
                  0000b274    0000001c                   : chipinfo.obj (.text:NOROM_ChipInfo_GetChipFamily)
                  0000b290    0000001c                   : setup_rom.obj (.text:NOROM_SetupGetTrimForAmpcompTh2)
                  0000b2ac    0000001c                   : setup_rom.obj (.text:NOROM_SetupGetTrimForRcOscLfRtuneCtuneTrim)
                  0000b2c8    0000001c     drivers_cc13x0.aem3 : PINCC26XX.oem3 (.text:PINCC26XX_setIoCfgMux)
                  0000b2e4    0000001c                         : PINCC26XX.oem3 (.text:PIN_hwi)
                  0000b300    0000001c     rf_multiMode_cc13x0.aem3 : RFCC26XX_multiMode.oem3 (.text:RF_setPowerConstraint)
                  0000b31c    0000001c     main.obj (.text:clk0Fxn)
                  0000b338    0000001c     rf_multiMode_cc13x0.aem3 : RFCC26XX_multiMode.oem3 (.text:clkInactivityFxn)
                  0000b354    0000001c     smartrf_settings.obj (.text:enterGenfskCpePatch)
                  0000b370    0000001c     smartrf_settings_predefined.obj (.text:enterGenfskCpePatch)
                  0000b38c    0000001c     smartrf_settings_predefined.obj (.text:enterGenookCpePatch)
                  0000b3a8    0000001c     smartrf_settings_predefined.obj (.text:enterLrmCpePatch)
                  0000b3c4    0000001c     smartrf_settings_predefined.obj (.text:enterSl_longrangeCpePatch)
                  0000b3e0    0000001c     rf_multiMode_cc13x0.aem3 : RFCC26XX_multiMode.oem3 (.text:hwiFxnCpe0ChangePhy)
                  0000b3fc    0000001c     rom_sysbios.aem3 : rom_sysbios.obj (.text:ti_sysbios_knl_Swi_construct2__E)
                  0000b418    0000001c     ti.uia.loggers.aem3 : LoggerStopMode.oem3 (.text:ti_uia_loggers_LoggerStopMode_Instance_init__E)
                  0000b434    0000001c     rom_sysbios.aem3 : rom_sysbios.obj (.text:xdc_runtime_SysMin_exit__E)
                  0000b450    0000001a     drivers_cc13x0.aem3 : PWMTimerCC26XX.oem3 (.text:PWMTimerCC26XX_control)
                  0000b46a    00000002     smartrf_settings_predefined.obj (.text:enterLrmSysPatch)
                  0000b46c    00000018     CC1310_LAUNCHXL.obj (.text:CC1310_LAUNCHXL_initGeneral)
                  0000b484    00000018     driverlib.lib : aon_rtc.obj (.text:NOROM_AONRTCCurrentCompareValueGet)
                  0000b49c    00000018                   : aux_adc.obj (.text:NOROM_AUXADCGetAdjustmentOffset)
                  0000b4b4    00000018                   : chipinfo.obj (.text:NOROM_ChipInfo_GetPackageType)
                  0000b4cc    00000018                   : osc.obj (.text:NOROM_OSCHF_TurnOnXosc)
                  0000b4e4    00000018                   : rfc.obj (.text:NOROM_RFCCpeIntGetAndClear)
                  0000b4fc    00000018                   : setup_rom.obj (.text:NOROM_SetupGetTrimForAdcShModeEn)
                  0000b514    00000018                   : setup_rom.obj (.text:NOROM_SetupGetTrimForAdcShVbufEn)
                  0000b52c    00000018                   : setup_rom.obj (.text:NOROM_SetupGetTrimForAmpcompTh1)
                  0000b544    00000018                   : setup_rom.obj (.text:NOROM_SetupGetTrimForDblrLoopFilterResetVoltage)
                  0000b55c    00000018                   : setup_rom.obj (.text:NOROM_SetupGetTrimForRcOscLfIBiasTrim)
                  0000b574    00000018                   : setup_rom.obj (.text:NOROM_SetupGetTrimForXoscLfRegulatorAndCmirrwrRatio)
                  0000b58c    00000018     drivers_cc13x0.aem3 : PowerCC26XX.oem3 (.text:Power_idleFunc)
                  0000b5a4    00000018                         : UARTCC26XX.oem3 (.text:UARTCC26XX_init)
                  0000b5bc    00000018                         : UART.oem3 (.text:UART_Params_init)
                  0000b5d4    00000018                         : PowerCC26XX.oem3 (.text:configureRFCoreClocks)
                  0000b5ec    00000018     hello_pem3.oem3 (.text:free)
                  0000b604    00000018     main.obj (.text:mReadByte)
                  0000b61c    00000018     rtsv7M3_T_le_eabi.lib : args_main.obj (.text)
                  0000b634    00000018                           : ll_mul_t2.obj (.text)
                  0000b64c    00000018     rf_multiMode_cc13x0.aem3 : RFCC26XX_multiMode.oem3 (.text:swiFxnFsm)
                  0000b664    00000018     hello_pem3.oem3 (.text:ti_sysbios_BIOS_rtsUnlock__I)
                  0000b67c    00000018     rom_sysbios.aem3 : rom_sysbios.obj (.text:ti_sysbios_knl_Swi_or__E)
                  0000b694    00000018     hello_pem3.oem3 (.text:ti_sysbios_rom_cortexm_cc13xx_CC13xx_checkRevision__E)
                  0000b6ac    00000018     hello_pem3.oem3 (.text:ti_uia_loggers_LoggerStopMode_Handle__label__S)
                  0000b6c4    00000018     rom_sysbios.aem3 : rom_sysbios.obj (.text:xdc_runtime_Error_init__E)
                  0000b6dc    00000018     main.obj (.text:xgReadByte)
                  0000b6f4    00000016     drivers_cc13x0.aem3 : List.oem3 (.text:List_remove)
                  0000b70a    00000016     driverlib.lib : chipinfo.obj (.text:NOROM_ThisLibraryIsFor_CC13x0_HwRev20AndLater_HaltIfViolated)
                  0000b720    00000016     rf_multiMode_cc13x0.aem3 : RFCC26XX_multiMode.oem3 (.text:Q_pop)
                  0000b736    00000016     rtsv7M3_T_le_eabi.lib : strcpy.obj (.text)
                  0000b74c    00000016     hello_pem3.oem3 (.text:ti_sysbios_BIOS_exitFunc__I)
                  0000b762    00000016     main.obj (.text:ti_sysbios_knl_Clock_Params_init)
                  0000b778    00000016     EasyLink.obj (.text:ti_sysbios_knl_Semaphore_Params_init)
                  0000b78e    00000016     main.obj (.text:ti_sysbios_knl_Semaphore_Params_init)
                  0000b7a4    00000016     main.obj (.text:ti_sysbios_knl_Task_Params_init)
                  0000b7ba    00000016     ti.uia.loggers.aem3 : LoggerStopMode.oem3 (.text:ti_uia_loggers_LoggerStopMode_disable__E)
                  0000b7d0    00000016                         : LoggerStopMode.oem3 (.text:ti_uia_loggers_LoggerStopMode_enable__E)
                  0000b7e6    00000002     smartrf_settings_predefined.obj (.text:enterSl_longrangeSysPatch)
                  0000b7e8    00000014     driverlib.lib : aon_rtc.obj (.text:NOROM_AONRTCCurrent64BitValueGet)
                  0000b7fc    00000014                   : aux_adc.obj (.text:NOROM_AUXADCValueToMicrovolts)
                  0000b810    00000014     drivers_cc13x0.aem3 : PINCC26XX.oem3 (.text:PINCC26XX_getOutputValue)
                  0000b824    00000014                         : PWM.oem3 (.text:PWM_Params_init)
                  0000b838    00000014     rf_multiMode_cc13x0.aem3 : RFCC26XX_multiMode.oem3 (.text:RF_Params_init)
                  0000b84c    00000014     rtsv7M3_T_le_eabi.lib : _lock.obj (.text)
                  0000b860    00000014                           : strlen.obj (.text)
                  0000b874    00000014     hello_pem3.oem3 (.text:ti_sysbios_knl_Clock_doTick__I)
                  0000b888    00000012     drivers_cc13x0.aem3 : RingBuf.oem3 (.text:RingBuf_construct)
                  0000b89a    00000012     dpl_cc13x0.aem3 : SemaphoreP_tirtos.oem3 (.text:SemaphoreP_pend)
                  0000b8ac    00000012     hello_pem3.oem3 (.text:xdc_runtime_Startup_exec__I)
                  0000b8be    00000010     dpl_cc13x0.aem3 : ClockP_tirtos.oem3 (.text:ClockP_isActive)
                  0000b8ce    00000010                     : HwiP_tirtos.oem3 (.text:HwiP_Params_init)
                  0000b8de    00000002     rom_sysbios.aem3 : rom_sysbios.obj (.text:ti_sysbios_BIOS_linkedWithIncorrectBootLibrary__E)
                  0000b8e0    00000010     drivers_cc13x0.aem3 : I2C.oem3 (.text:I2C_Params_init)
                  0000b8f0    00000010     driverlib.lib : aux_adc.obj (.text:NOROM_AUXADCFlushFifo)
                  0000b900    00000010                   : aux_adc.obj (.text:NOROM_AUXADCReadFifo)
                  0000b910    00000010                   : rfc.obj (.text:NOROM_RFCRfTrimSet)
                  0000b920    00000010                   : setup_rom.obj (.text:NOROM_SetupGetTrimForXoscHfFastStart)
                  0000b930    00000010                   : setup_rom.obj (.text:NOROM_SetupGetTrimForXoscHfIbiastherm)
                  0000b940    00000010     dpl_cc13x0.aem3 : SwiP_tirtos.oem3 (.text:SwiP_Params_init)
                  0000b950    00000010     drivers_cc13x0.aem3 : WatchdogCC26XX.oem3 (.text:WatchdogCC26XX_clear)
                  0000b960    00000010                         : Watchdog.oem3 (.text:Watchdog_Params_init)
                  0000b970    00000010     smartrf_settings.obj (.text:applyGenfskPatch)
                  0000b980    00000010     smartrf_settings_predefined.obj (.text:applyGenfskPatch)
                  0000b990    00000010     smartrf_settings_predefined.obj (.text:applyGenookPatch)
                  0000b9a0    00000010     smartrf_settings_predefined.obj (.text:applyLrmPatch)
                  0000b9b0    00000010     smartrf_settings_predefined.obj (.text:applySl_longrangePatch)
                  0000b9c0    00000010     drivers_cc13x0.aem3 : I2CCC26XX.oem3 (.text:i2cPostNotify)
                  0000b9d0    00000010     rom_sysbios.aem3 : rom_sysbios.obj (.text:ti_sysbios_family_arm_m3_Hwi_post__E)
                  0000b9e0    00000010     hello_pem3.oem3 (.text:ti_uia_loggers_LoggerStopMode_Object__get__S)
                  0000b9f0    00000010     ti.uia.loggers.aem3 : LoggerStopMode.oem3 (.text:ti_uia_loggers_LoggerStopMode_isEmpty__E)
                  0000ba00    00000010     drivers_cc13x0.aem3 : UARTCC26XX.oem3 (.text:uartPostNotify)
                  0000ba10    0000000e     driverlib.lib : vims.obj (.text:NOROM_VIMSModeGet)
                  0000ba1e    0000000e     rtsv7M3_T_le_eabi.lib : copy_decompress_none.obj (.text:decompress:none)
                  0000ba2c    0000000e     rom_sysbios.aem3 : rom_sysbios.obj (.text:ti_sysbios_family_arm_cc26xx_TimestampProvider_get32__E)
                  0000ba3a    00000002     hello_pem3.oem3 (.text:ti_sysbios_BIOS_nullFunc__I)
                  0000ba3c    0000000c     rf_multiMode_cc13x0.aem3 : RFCC26XX_multiMode.oem3 (.text:FsmNextState)
                  0000ba48    0000000c     drivers_cc13x0.aem3 : GPTimerCC26XX.oem3 (.text:GPTimerCC26XX_Params_init)
                  0000ba54    0000000c                         : List.oem3 (.text:List_empty)
                  0000ba60    0000000c     driverlib.lib : cpu.obj (.text:NOROM_CPUcpsid)
                  0000ba6c    0000000c                   : cpu.obj (.text:NOROM_CPUcpsie)
                  0000ba78    0000000c                   : osc.obj (.text:NOROM_OSC_HPOSCRelativeFrequencyOffsetToRFCoreFormatConvert)
                  0000ba84    0000000c     drivers_cc13x0.aem3 : PINCC26XX.oem3 (.text:PIN_registerIntCb)
                  0000ba90    0000000c                         : PowerCC26XX.oem3 (.text:Power_getConstraintMask)
                  0000ba9c    0000000c                         : PowerCC26XX.oem3 (.text:Power_getDependencyCount)
                  0000baa8    0000000c     rtsv7M3_T_le_eabi.lib : copy_zero_init.obj (.text:decompress:ZI)
                  0000bab4    0000000c     main.obj (.text:ti_sysbios_knl_Semaphore_handle)
                  0000bac0    0000000c     rom_sysbios.aem3 : rom_sysbios.obj (.text:ti_sysbios_knl_Swi_getTrigger__E)
                  0000bacc    0000000c     hello_pem3.oem3 (.text:xdc_runtime_Startup_reset__I)
                  0000bad8    0000000c     rom_sysbios.aem3 : rom_sysbios.obj (.text:xdc_runtime_Startup_rtsDone__E)
                  0000bae4    0000000a     drivers_cc13x0.aem3 : ADC.oem3 (.text:ADC_Params_init)
                  0000baee    0000000a                         : ADC.oem3 (.text:ADC_convert)
                  0000baf8    0000000a                         : ADC.oem3 (.text:ADC_convertToMicroVolts)
                  0000bb02    0000000a                         : I2CCC26XX.oem3 (.text:I2CCC26XX_init)
                  0000bb0c    0000000a                         : I2C.oem3 (.text:I2C_transfer)
                  0000bb16    0000000a                         : PWM.oem3 (.text:PWM_setDuty)
                  0000bb20    0000000a                         : PWM.oem3 (.text:PWM_start)
                  0000bb2a    0000000a                         : UART.oem3 (.text:UART_control)
                  0000bb34    0000000a                         : UART.oem3 (.text:UART_read)
                  0000bb3e    0000000a                         : UART.oem3 (.text:UART_write)
                  0000bb48    0000000a                         : Watchdog.oem3 (.text:Watchdog_clear)
                  0000bb52    0000000a                         : Watchdog.oem3 (.text:Watchdog_setReload)
                  0000bb5c    00000008                         : ADCCC26XX.oem3 (.text:ADCCC26XX_init)
                  0000bb64    00000008                         : GPTimerCC26XX.oem3 (.text:GPTimerCC26XX_setLoadValue)
                  0000bb6c    00000008                         : GPTimerCC26XX.oem3 (.text:GPTimerCC26XX_setMatchValue)
                  0000bb74    00000008                         : I2CCC26XX.oem3 (.text:I2CCC26XX_blockingCallback)
                  0000bb7c    00000008                         : WatchdogCC26XX.oem3 (.text:WatchdogCC26XX_init)
                  0000bb84    00000008                         : UARTCC26XX.oem3 (.text:readSemCallback)
                  0000bb8c    00000008     smartrf_settings.obj (.text:rf_patch_cpe_genfsk)
                  0000bb94    00000008     smartrf_settings_predefined.obj (.text:rf_patch_cpe_genfsk)
                  0000bb9c    00000008     smartrf_settings_predefined.obj (.text:rf_patch_cpe_genook)
                  0000bba4    00000008     smartrf_settings_predefined.obj (.text:rf_patch_cpe_lrm)
                  0000bbac    00000008     smartrf_settings_predefined.obj (.text:rf_patch_cpe_sl_longrange)
                  0000bbb4    00000008     drivers_cc13x0.aem3 : UARTCC26XX.oem3 (.text:writeSemCallback)
                  0000bbbc    00000006                         : ADCCC26XX.oem3 (.text:ADCCC26XX_control)
                  0000bbc2    00000006     dpl_cc13x0.aem3 : ClockP_tirtos.oem3 (.text:ClockP_Params_init)
                  0000bbc8    00000006     drivers_cc13x0.aem3 : I2CCC26XX.oem3 (.text:I2CCC26XX_control)
                  0000bbce    00000006     driverlib.lib : cpu.obj (.text:NOROM_CPUdelay)
                  0000bbd4    00000006     drivers_cc13x0.aem3 : UARTCC26XX.oem3 (.text:UARTCC26XX_readPolling)
                  0000bbda    00000006                         : UARTCC26XX.oem3 (.text:UARTCC26XX_writePolling)
                  0000bbe0    00000006                         : WatchdogCC26XX.oem3 (.text:WatchdogCC26XX_control)
                  0000bbe6    00000006     rf_multiMode_cc13x0.aem3 : RFCC26XX_multiMode.oem3 (.text:clkReqAccessFxn)
                  0000bbec    00000006     rom_sysbios.aem3 : rom_sysbios.obj (.text:ti_sysbios_family_arm_m3_Hwi_setFunc__E)
                  0000bbf2    00000004     dpl_cc13x0.aem3 : PowerCC26XX_tirtos.oem3 (.text:CPUwfi)
                  0000bbf6    00000004                     : ClockP_tirtos.oem3 (.text:ClockP_destruct)
                  0000bbfa    00000004                     : ClockP_tirtos.oem3 (.text:ClockP_getCpuFreq)
                  0000bbfe    00000004                     : ClockP_tirtos.oem3 (.text:ClockP_getTimeout)
                  0000bc02    00000004                     : ClockP_tirtos.oem3 (.text:ClockP_setTimeout)
                  0000bc06    00000004                     : ClockP_tirtos.oem3 (.text:ClockP_start)
                  0000bc0a    00000004                     : ClockP_tirtos.oem3 (.text:ClockP_stop)
                  0000bc0e    00000004                     : HwiP_tirtos.oem3 (.text:HwiP_destruct)
                  0000bc12    00000004                     : HwiP_tirtos.oem3 (.text:HwiP_disable)
                  0000bc16    00000004                     : HwiP_tirtos.oem3 (.text:HwiP_disableInterrupt)
                  0000bc1a    00000004                     : HwiP_tirtos.oem3 (.text:HwiP_enableInterrupt)
                  0000bc1e    00000004                     : HwiP_tirtos.oem3 (.text:HwiP_plug)
                  0000bc22    00000004                     : HwiP_tirtos.oem3 (.text:HwiP_post)
                  0000bc26    00000004                     : HwiP_tirtos.oem3 (.text:HwiP_setFunc)
                  0000bc2a    00000004     drivers_cc13x0.aem3 : List.oem3 (.text:List_head)
                  0000bc2e    00000004                         : List.oem3 (.text:List_next)
                  0000bc32    00000004     rf_multiMode_cc13x0.aem3 : RFCC26XX_multiMode.oem3 (.text:Q_peek)
                  0000bc36    00000004     dpl_cc13x0.aem3 : SemaphoreP_tirtos.oem3 (.text:SemaphoreP_destruct)
                  0000bc3a    00000004                     : SemaphoreP_tirtos.oem3 (.text:SemaphoreP_post)
                  0000bc3e    00000004                     : SwiP_tirtos.oem3 (.text:SwiP_destruct)
                  0000bc42    00000004                     : SwiP_tirtos.oem3 (.text:SwiP_disable)
                  0000bc46    00000004                     : SwiP_tirtos.oem3 (.text:SwiP_getTrigger)
                  0000bc4a    00000004                     : SwiP_tirtos.oem3 (.text:SwiP_or)
                  0000bc4e    00000004                     : SwiP_tirtos.oem3 (.text:SwiP_post)
                  0000bc52    00000004     drivers_cc13x0.aem3 : PowerCC26XX.oem3 (.text:nopResourceHandler)
                  0000bc56    00000004     rtsv7M3_T_le_eabi.lib : error.obj (.text)
                  0000bc5a    00000004     rom_sysbios.aem3 : rom_sysbios.obj (.text:ti_sysbios_family_arm_cc26xx_Timer_getCount64__E)
                  0000bc5e    00000004                      : rom_sysbios.obj (.text:ti_sysbios_knl_Clock_isActive__E)
                  0000bc62    00000004     ti.uia.loggers.aem3 : LoggerStopMode.oem3 (.text:ti_uia_loggers_LoggerStopMode_getContents__E)
                  0000bc66    00000004     hello_pem3.oem3 (.text:ti_uia_loggers_LoggerStopMode_getFilterLevel__E)
                  0000bc6a    00000004     ti.uia.loggers.aem3 : LoggerStopMode.oem3 (.text:ti_uia_loggers_LoggerStopMode_getInstanceId__E)
                  0000bc6e    00000004                         : LoggerStopMode.oem3 (.text:ti_uia_loggers_LoggerStopMode_getMaxLength__E)
                  0000bc72    00000004                         : LoggerStopMode.oem3 (.text:ti_uia_loggers_LoggerStopMode_getPriority__E)
                  0000bc76    00000004                         : LoggerStopMode.oem3 (.text:ti_uia_loggers_LoggerStopMode_getTransferType__E)
                  0000bc7a    00000002     rom_sysbios.aem3 : rom_sysbios.obj (.text:ti_sysbios_knl_Clock_triggerFunc__I)
                  0000bc7c    00000002     hello_pem3.oem3 (.text:ti_sysbios_rom_cortexm_cc13xx_CC13xx_badRomRevision__E)
                  0000bc7e    00000002     hello_pem3.oem3 (.text:ti_uia_loggers_LoggerStopMode_setFilterLevel__E)
                  0000bc80    00000002     ti.uia.loggers.aem3 : LoggerStopMode.oem3 (.text:ti_uia_loggers_LoggerStopMode_setPriority__E)
                  0000bc82    00000002     rom_sysbios.aem3 : rom_sysbios.obj (.text:xdc_runtime_SysCallback_defaultAbort)
                  0000bc84    00000002                      : rom_sysbios.obj (.text:xdc_runtime_SysCallback_defaultExit)
                  0000bc86    00000002     --HOLE-- [fill = 0]
                  0000bc88    00000008     (.tramp.ti_sysbios_knl_Swi_destruct.1)
                  0000bc90    00000008     (.tramp.ti_sysbios_knl_Semaphore_destruct.1)
                  0000bc98    00000008     (.tramp.ti_sysbios_family_arm_m3_Hwi_plug__E.1)
                  0000bca0    00000008     (.tramp.ti_sysbios_family_arm_m3_Hwi_enableInterrupt__E.1)
                  0000bca8    00000008     (.tramp.ti_sysbios_family_arm_m3_Hwi_disableInterrupt__E.1)
                  0000bcb0    00000008     (.tramp.ti_sysbios_family_arm_m3_Hwi_destruct.1)
                  0000bcb8    00000008     (.tramp.ti_sysbios_BIOS_getCpuFreq__E.1)
                  0000bcc0    00000008     (.tramp.ti_sysbios_knl_Clock_destruct.1)
                  0000bcc8    00000008     (.tramp.xdc_runtime_Startup_startMods__I.1)
                  0000bcd0    00000008     (.tramp.ti_sysbios_knl_Clock_logTick__E.1)
                  0000bcd8    00000008     (.tramp.ti_sysbios_knl_Task_Params__init__S.1)
                  0000bce0    00000008     (.tramp.xdc_runtime_Core_assignLabel__I.1)
                  0000bce8    00000008     (.tramp.ti_sysbios_knl_Swi_post__E.1)
                  0000bcf0    00000008     (.tramp.ti_sysbios_BIOS_RtsGateProxy_leave__E.1)
                  0000bcf8    00000008     (.tramp.xdc_runtime_Memory_free__E.1)
                  0000bd00    00000008     (.tramp.ti_sysbios_knl_Swi_construct.1)
                  0000bd08    00000008     (.tramp.xdc_runtime_Core_deleteObject__I.1)
                  0000bd10    00000008     (.tramp.ti_sysbios_BIOS_RtsGateProxy_enter__E.1)
                  0000bd18    00000008     (.tramp.ti_sysbios_knl_Task_restore__E.1)
                  0000bd20    00000008     (.tramp.ti_sysbios_knl_Clock_getTicks__E.1)
                  0000bd28    00000008     (.tramp.ti_sysbios_knl_Semaphore_Params__init__S.1)
                  0000bd30    00000008     (.tramp.xdc_runtime_Memory_alloc__E.1)
                  0000bd38    00000008     (.tramp.xdc_runtime_Core_createObject__I.1)
                  0000bd40    00000008     (.tramp.ti_sysbios_knl_Task_startup__E.1)
                  0000bd48    00000008     (.tramp.ti_sysbios_knl_Swi_startup__E.1)
                  0000bd50    00000008     (.tramp.ti_sysbios_hal_Hwi_startup__E.1)
                  0000bd58    00000008     (.tramp.ti_sysbios_family_arm_cc26xx_Timer_startup__E.1)
                  0000bd60    00000008     (.tramp.xdc_runtime_System_atexit__E.1)
                  0000bd68    00000008     (.tramp.ti_sysbios_BIOS_setThreadType__E.1)
                  0000bd70    00000008     (.tramp.ti_sysbios_knl_Task_disable__E.1)
                  0000bd78    00000008     (.tramp.ti_sysbios_knl_Swi_disable__E.1)
                  0000bd80    00000008     (.tramp.ti_sysbios_family_arm_m3_Hwi_construct.1)
                  0000bd88    00000008     (.tramp.ti_sysbios_knl_Swi_Params__init__S.1)
                  0000bd90    00000008     (.tramp.ti_sysbios_family_arm_m3_Hwi_Params__init__S.1)
                  0000bd98    00000008     (.tramp.xdc_runtime_System_exit__E.1)
                  0000bda0    00000008     (.tramp.ti_sysbios_knl_Clock_construct.1)
                  0000bda8    00000008     (.tramp.ti_sysbios_knl_Clock_Params__init__S.1)
                  0000bdb0    00000008     (.tramp.ti_sysbios_BIOS_start__E.1)
                  0000bdb8    00000008     (.tramp.ti_sysbios_knl_Task_construct.1)
                  0000bdc0    00000008     (.tramp.ti_sysbios_heaps_HeapMem_restore__E.1)
                  0000bdc8    00000008     (.tramp.ti_sysbios_heaps_HeapMem_Object__get__S.1)
                  0000bdd0    00000008     (.tramp.xdc_runtime_Gate_leaveSystem__E.1)
                  0000bdd8    00000008     (.tramp.xdc_runtime_Gate_enterSystem__E.1)
                  0000bde0    00000008     (.tramp.xdc_runtime_Assert_raise__I.1)
                  0000bde8    00000008     (.tramp.ti_sysbios_knl_Clock_scheduleNextTick__E.1)
                  0000bdf0    00000008     (.tramp.ti_sysbios_knl_Clock_walkQueueDynamic__E.1)
                  0000bdf8    00000008     (.tramp.ti_sysbios_knl_Clock_TimerProxy_getCurrentTick__E.1)
                  0000be00    00000008     (.tramp.ti_sysbios_knl_Clock_start__E.1)
                  0000be08    00000008     (.tramp.ti_sysbios_knl_Clock_setTimeout__E.1)
                  0000be10    00000008     (.tramp.ti_sysbios_knl_Semaphore_construct.1)
                  0000be18    00000008     (.tramp.ti_sysbios_knl_Task_sleep__E.1)
                  0000be20    00000008     (.tramp.xdc_runtime_Timestamp_get64__E.1)
                  0000be28    00000008     (.tramp.ti_sysbios_family_arm_m3_Hwi_disableFxn__E.1)
                  0000be30    00000008     (.tramp.ti_sysbios_knl_Swi_restore__E.1)
                  0000be38    00000008     (.tramp.ti_sysbios_knl_Semaphore_create.1)
                  0000be40    00000008     (.tramp.ti_sysbios_knl_Semaphore_post__E.1)
                  0000be48    00000008     (.tramp.ti_sysbios_knl_Semaphore_pend__E.1)
                  0000be50    00000008     (.tramp.ti_sysbios_family_arm_m3_Hwi_restoreFxn__E.1)

.const     0    0000be58    00004a23     
                  0000be58    0000073c     smartrf_settings_predefined.obj (.const:patchGenookMce)
                  0000c594    000006b4     smartrf_settings.obj (.const:patchGenfskRfe)
                  0000cc48    000006b4     smartrf_settings_predefined.obj (.const:patchGenfskRfe)
                  0000d2fc    000006b4     smartrf_settings_predefined.obj (.const:patchLrmRfe)
                  0000d9b0    000006b4     smartrf_settings_predefined.obj (.const:patchSl_longrangeRfe)
                  0000e064    000006a4     smartrf_settings_predefined.obj (.const:patchGenookRfe)
                  0000e708    00000504     smartrf_settings_predefined.obj (.const:patchHsp4mbpsRfe)
                  0000ec0c    00000400     smartrf_settings_predefined.obj (.const:patchSl_longrangeMce)
                  0000f00c    000003f0     smartrf_settings_predefined.obj (.const:patchHsp4mbpsMce)
                  0000f3fc    000002b0     smartrf_settings.obj (.const:patchImageGenfsk)
                  0000f6ac    000002b0     smartrf_settings_predefined.obj (.const:patchImageGenfsk)
                  0000f95c    000002b0     smartrf_settings_predefined.obj (.const:patchImageGenook)
                  0000fc0c    000002b0     smartrf_settings_predefined.obj (.const:patchImageLrm)
                  0000febc    000002b0     smartrf_settings_predefined.obj (.const:patchImageSl_longrange)
                  0001016c    00000090     main.obj (.const:$P$T1$2)
                  000101fc    00000084     CC1310_LAUNCHXL.obj (.const:ADC_config)
                  00010280    00000060     CC1310_LAUNCHXL.obj (.const:GPTimerCC26XX_config)
                  000102e0    00000060     CC1310_LAUNCHXL.obj (.const:PWM_config)
                  00010340    00000060     CC1310_LAUNCHXL.obj (.const:gptimerCC26xxHWAttrs)
                  000103a0    00000060     hello_pem3.oem3 (.const:ti_uia_loggers_LoggerStopMode_Module__FXNS__C)
                  00010400    0000004d     CC1310_LAUNCHXL.obj (.const:adcCC26xxHWAttrs)
                  0001044d    00000001     smartrf_settings_predefined.obj (.const)
                  0001044e    0000004c     drivers_cc13x0.aem3 : PowerCC26XX.oem3 (.const:resourceDB)
                  0001049a    00000002     hello_pem3.oem3 (.const:ti_uia_loggers_LoggerStopMode_Module__id__C)
                  0001049c    00000048     hello_pem3.oem3 (.const:.string)
                  000104e4    00000040     drivers_cc13x0.aem3 : UARTCC26XX.oem3 (.const:$O1$$)
                  00010524    00000040     smartrf_settings_predefined.obj (.const:rfPowerTable)
                  00010564    0000002c     CC1310_LAUNCHXL.obj (.const:BoardGpioInitTable)
                  00010590    0000002c     hello_pem3.oem3 (.const:xdc_runtime_Startup_sfxnTab__A)
                  000105bc    00000028     drivers_cc13x0.aem3 : UARTCC26XX.oem3 (.const:UARTCC26XX_fxnTable)
                  000105e4    00000028     hello_pem3.oem3 (.const:ti_uia_loggers_LoggerStopMode_Object__PARAMS__C)
                  0001060c    00000024     drivers_cc13x0.aem3 : GPTimerCC26XX.oem3 (.const:$O1$$)
                  00010630    00000024                         : UART.oem3 (.const:UART_defaultParams)
                  00010654    00000020                         : PWMTimerCC26XX.oem3 (.const:PWMTimerCC26XX_fxnTable)
                  00010674    00000020     hello_pem3.oem3 (.const:ti_uia_loggers_LoggerStopMode_Object__DESC__C)
                  00010694    00000020     CC1310_LAUNCHXL.obj (.const:uartCC26XXHWAttrs)
                  000106b4    0000001c     rf_multiMode_cc13x0.aem3 : RFCC26XX_multiMode.oem3 (.const:RF_defaultParams)
                  000106d0    0000001c     drivers_cc13x0.aem3 : WatchdogCC26XX.oem3 (.const:WatchdogCC26XX_fxnTable)
                  000106ec    00000018     EasyLink.obj (.const:$P$T0$3)
                  00010704    00000018     drivers_cc13x0.aem3 : ADCCC26XX.oem3 (.const:ADCCC26XX_fxnTable)
                  0001071c    00000018                         : I2CCC26XX.oem3 (.const:I2CCC26XX_fxnTable)
                  00010734    00000018                         : PWM.oem3 (.const:PWM_defaultParams)
                  0001074c    00000018     CC1310_LAUNCHXL.obj (.const:i2cCC26xxHWAttrs)
                  00010764    00000018     driverlib.lib : rfc.obj (.const:rfc_defaultIrqAddr)
                  0001077c    00000016     hello_pem3.oem3 (.const:xdc_runtime_Startup_sfxnRts__A)
                  00010792    00000002     hello_pem3.oem3 (.const:ti_uia_loggers_LoggerStopMode_isTimestampEnabled__C)
                  00010794    00000010     drivers_cc13x0.aem3 : I2C.oem3 (.const:I2C_defaultParams)
                  000107a4    00000010     CC1310_LAUNCHXL.obj (.const:PowerCC26XX_config)
                  000107b4    00000010     CC1310_LAUNCHXL.obj (.const:pwmtimerCC26xxHWAttrs)
                  000107c4    0000000c     CC1310_LAUNCHXL.obj (.const:I2C_config)
                  000107d0    0000000c     CC1310_LAUNCHXL.obj (.const:UART_config)
                  000107dc    0000000c     CC1310_LAUNCHXL.obj (.const:Watchdog_config)
                  000107e8    0000000c     drivers_cc13x0.aem3 : Watchdog.oem3 (.const:Watchdog_defaultParams)
                  000107f4    0000000c     hello_pem3.oem3 (.const:xdc_runtime_Startup_firstFxns__A)
                  00010800    00000009     CC1310_LAUNCHXL.obj (.const)
                  00010809    00000003     main.obj (.const:.string:$P$T0$1)
                  0001080c    00000008     drivers_cc13x0.aem3 : ADC.oem3 (.const:ADC_defaultParams)
                  00010814    00000008     CC1310_LAUNCHXL.obj (.const:PINCC26XX_hwAttrs)
                  0001081c    00000008     drivers_cc13x0.aem3 : I2CCC26XX.oem3 (.const:bitRate)
                  00010824    00000008     CC1310_LAUNCHXL.obj (.const:watchdogCC26XXHWAttrs)
                  0001082c    00000004     EasyLink.obj (.const:$P$T1$4)
                  00010830    00000004     CC1310_LAUNCHXL.obj (.const:RFCC26XX_hwAttrs)
                  00010834    00000004     hello_pem3.oem3 (.const:ti_sysbios_family_arm_m3_Hwi_swiDisable__C)
                  00010838    00000004     hello_pem3.oem3 (.const:ti_sysbios_family_arm_m3_Hwi_swiRestoreHwi__C)
                  0001083c    00000004     hello_pem3.oem3 (.const:ti_sysbios_heaps_HeapMem_primaryHeapBaseAddr__C)
                  00010840    00000004     hello_pem3.oem3 (.const:ti_sysbios_heaps_HeapMem_primaryHeapEndAddr__C)
                  00010844    00000004     hello_pem3.oem3 (.const:ti_sysbios_knl_Clock_tickPeriod__C)
                  00010848    00000004     hello_pem3.oem3 (.const:ti_sysbios_knl_Clock_triggerClock__C)
                  0001084c    00000004     hello_pem3.oem3 (.const:ti_sysbios_knl_Idle_funcList__A)
                  00010850    00000004     hello_pem3.oem3 (.const:ti_uia_loggers_LoggerStopMode_Module__diagsEnabled__C)
                  00010854    00000004     hello_pem3.oem3 (.const:ti_uia_loggers_LoggerStopMode_Module__diagsIncluded__C)
                  00010858    00000004     hello_pem3.oem3 (.const:ti_uia_loggers_LoggerStopMode_Module__diagsMask__C)
                  0001085c    00000004     hello_pem3.oem3 (.const:ti_uia_loggers_LoggerStopMode_Object__count__C)
                  00010860    00000004     hello_pem3.oem3 (.const:ti_uia_runtime_ILoggerSnapshot_Interface__BASE__C)
                  00010864    00000004     hello_pem3.oem3 (.const:ti_uia_runtime_IUIATransfer_Interface__BASE__C)
                  00010868    00000004     hello_pem3.oem3 (.const:xdc_runtime_IFilterLogger_Interface__BASE__C)
                  0001086c    00000004     hello_pem3.oem3 (.const:xdc_runtime_ILogger_Interface__BASE__C)
                  00010870    00000004     hello_pem3.oem3 (.const:xdc_runtime_SysMin_bufSize__C)
                  00010874    00000004     hello_pem3.oem3 (.const:xdc_runtime_SysMin_outputFunc__C)
                  00010878    00000002     hello_pem3.oem3 (.const:xdc_runtime_SysMin_flushAtExit__C)
                  0001087a    00000001     hello_pem3.oem3 (.const:xdc_runtime_Text_charTab__A)

.cinit     0    00000040    00000498     
                  00000040    0000035b     (.cinit..data.load) [load image, compression = lzss]
                  0000039b    00000029     (.cinit..data:ti_sysbios_family_arm_m3_Hwi_Module__state__V.load) [load image, compression = lzss]
                  000003c4    00000021     (.cinit..data:ti_sysbios_knl_Task_Module__state__V.load) [load image, compression = lzss]
                  000003e5    0000001e     (.cinit..data:ti_sysbios_BIOS_Module__state__V.load) [load image, compression = lzss]
                  00000403    0000001e     (.cinit..data:ti_sysbios_knl_Clock_Module__state__V.load) [load image, compression = lzss]
                  00000421    00000010     (.cinit..data:ti_sysbios_knl_Swi_Module__state__V.load) [load image, compression = lzss]
                  00000431    00000003     --HOLE-- [fill = 0]
                  00000434    0000000c     (__TI_handler_table)
                  00000440    0000000b     (.cinit..data:ti_sysbios_family_arm_cc26xx_Timer_Module__state__V.load) [load image, compression = lzss]
                  0000044b    0000000b     (.cinit..data:xdc_runtime_System_Module__state__V.load) [load image, compression = lzss]
                  00000456    00000002     --HOLE-- [fill = 0]
                  00000458    00000008     (.cinit..bss.load) [load image, compression = zero_init]
                  00000460    00000008     (.cinit..data:xdc_runtime_Memory_Module__state__V.load) [load image, compression = lzss]
                  00000468    00000007     (.cinit..data:ti_sysbios_family_arm_cc26xx_TimestampProvider_Module__state__V.load) [load image, compression = lzss]
                  0000046f    00000007     (.cinit..data:xdc_runtime_Startup_Module__state__V.load) [load image, compression = lzss]
                  00000476    00000002     --HOLE-- [fill = 0]
                  00000478    00000060     (__TI_cinit_table)

.init_array 
*          0    00000000    00000000     UNINITIALIZED

.const:ti_sysbios_knl_Task_Object__PARAMS__C 
*          0    00001000    0000003c     
                  00001000    0000003c     hello_pem3.oem3 (.const:ti_sysbios_knl_Task_Object__PARAMS__C)

.const:ti_sysbios_knl_Mailbox_Object__PARAMS__C 
*          0    0000103c    00000034     
                  0000103c    00000034     hello_pem3.oem3 (.const:ti_sysbios_knl_Mailbox_Object__PARAMS__C)

.const:ti_sysbios_family_arm_m3_Hwi_Object__PARAMS__C 
*          0    00001070    00000030     
                  00001070    00000030     hello_pem3.oem3 (.const:ti_sysbios_family_arm_m3_Hwi_Object__PARAMS__C)

.const:ti_sysbios_hal_Hwi_Object__PARAMS__C 
*          0    000010a0    0000002c     
                  000010a0    0000002c     hello_pem3.oem3 (.const:ti_sysbios_hal_Hwi_Object__PARAMS__C)

.const:ti_sysbios_heaps_HeapMem_Module__FXNS__C 
*          0    000010cc    00000028     
                  000010cc    00000028     hello_pem3.oem3 (.const:ti_sysbios_heaps_HeapMem_Module__FXNS__C)

.const:ti_sysbios_knl_Swi_Object__PARAMS__C 
*          0    000010f4    00000028     
                  000010f4    00000028     hello_pem3.oem3 (.const:ti_sysbios_knl_Swi_Object__PARAMS__C)

.const:ti_sysbios_gates_GateHwi_Module__FXNS__C 
*          0    0000111c    00000024     
                  0000111c    00000024     hello_pem3.oem3 (.const:ti_sysbios_gates_GateHwi_Module__FXNS__C)

.const:ti_sysbios_gates_GateMutex_Module__FXNS__C 
*          0    00001140    00000024     
                  00001140    00000024     hello_pem3.oem3 (.const:ti_sysbios_gates_GateMutex_Module__FXNS__C)

.const:ti_sysbios_heaps_HeapMem_Object__PARAMS__C 
*          0    00001164    00000024     
                  00001164    00000024     hello_pem3.oem3 (.const:ti_sysbios_heaps_HeapMem_Object__PARAMS__C)

.const:ti_sysbios_knl_Clock_Object__PARAMS__C 
*          0    00001188    00000024     
                  00001188    00000024     hello_pem3.oem3 (.const:ti_sysbios_knl_Clock_Object__PARAMS__C)

.const:ti_sysbios_knl_Semaphore_Object__PARAMS__C 
*          0    000011ac    00000024     
                  000011ac    00000024     hello_pem3.oem3 (.const:ti_sysbios_knl_Semaphore_Object__PARAMS__C)

.const:ti_sysbios_family_arm_m3_Hwi_Object__DESC__C 
*          0    000011d0    00000020     
                  000011d0    00000020     hello_pem3.oem3 (.const:ti_sysbios_family_arm_m3_Hwi_Object__DESC__C)

.const:ti_sysbios_gates_GateHwi_Object__DESC__C 
*          0    000011f0    00000020     
                  000011f0    00000020     hello_pem3.oem3 (.const:ti_sysbios_gates_GateHwi_Object__DESC__C)

.const:ti_sysbios_gates_GateMutex_Object__DESC__C 
*          0    00001210    00000020     
                  00001210    00000020     hello_pem3.oem3 (.const:ti_sysbios_gates_GateMutex_Object__DESC__C)

.const:ti_sysbios_hal_Hwi_Object__DESC__C 
*          0    00001230    00000020     
                  00001230    00000020     hello_pem3.oem3 (.const:ti_sysbios_hal_Hwi_Object__DESC__C)

.const:ti_sysbios_heaps_HeapMem_Object__DESC__C 
*          0    00001250    00000020     
                  00001250    00000020     hello_pem3.oem3 (.const:ti_sysbios_heaps_HeapMem_Object__DESC__C)

.const:ti_sysbios_knl_Clock_Object__DESC__C 
*          0    00001270    00000020     
                  00001270    00000020     hello_pem3.oem3 (.const:ti_sysbios_knl_Clock_Object__DESC__C)

.const:ti_sysbios_knl_Mailbox_Object__DESC__C 
*          0    00001290    00000020     
                  00001290    00000020     hello_pem3.oem3 (.const:ti_sysbios_knl_Mailbox_Object__DESC__C)

.const:ti_sysbios_knl_Queue_Object__DESC__C 
*          0    000012b0    00000020     
                  000012b0    00000020     hello_pem3.oem3 (.const:ti_sysbios_knl_Queue_Object__DESC__C)

.const:ti_sysbios_knl_Semaphore_Object__DESC__C 
*          0    000012d0    00000020     
                  000012d0    00000020     hello_pem3.oem3 (.const:ti_sysbios_knl_Semaphore_Object__DESC__C)

.const:ti_sysbios_knl_Swi_Object__DESC__C 
*          0    000012f0    00000020     
                  000012f0    00000020     hello_pem3.oem3 (.const:ti_sysbios_knl_Swi_Object__DESC__C)

.const:ti_sysbios_knl_Task_Object__DESC__C 
*          0    00001310    00000020     
                  00001310    00000020     hello_pem3.oem3 (.const:ti_sysbios_knl_Task_Object__DESC__C)

.const:ti_sysbios_gates_GateHwi_Object__PARAMS__C 
*          0    00001330    00000018     
                  00001330    00000018     hello_pem3.oem3 (.const:ti_sysbios_gates_GateHwi_Object__PARAMS__C)

.const:ti_sysbios_gates_GateMutex_Object__PARAMS__C 
*          0    00001348    00000018     
                  00001348    00000018     hello_pem3.oem3 (.const:ti_sysbios_gates_GateMutex_Object__PARAMS__C)

.const:ti_sysbios_knl_Queue_Object__PARAMS__C 
*          0    00001360    00000018     
                  00001360    00000018     hello_pem3.oem3 (.const:ti_sysbios_knl_Queue_Object__PARAMS__C)

.const:ti_sysbios_knl_Idle_funcList__C 
*          0    00001378    00000008     
                  00001378    00000008     hello_pem3.oem3 (.const:ti_sysbios_knl_Idle_funcList__C)

.const:ti_sysbios_family_arm_cc26xx_Timer_startupNeeded__C 
*          0    00001384    00000004     
                  00001384    00000004     hello_pem3.oem3 (.const:ti_sysbios_family_arm_cc26xx_Timer_startupNeeded__C)

.const:ti_sysbios_family_arm_m3_Hwi_E_alreadyDefined__C 
*          0    00001388    00000004     
                  00001388    00000004     hello_pem3.oem3 (.const:ti_sysbios_family_arm_m3_Hwi_E_alreadyDefined__C)

.const:ti_sysbios_family_arm_m3_Hwi_E_hwiLimitExceeded__C 
*          0    0000138c    00000004     
                  0000138c    00000004     hello_pem3.oem3 (.const:ti_sysbios_family_arm_m3_Hwi_E_hwiLimitExceeded__C)

.const:ti_sysbios_family_arm_m3_Hwi_NUM_INTERRUPTS__C 
*          0    00001390    00000004     
                  00001390    00000004     hello_pem3.oem3 (.const:ti_sysbios_family_arm_m3_Hwi_NUM_INTERRUPTS__C)

.const:ti_sysbios_family_arm_m3_Hwi_Object__count__C 
*          0    00001394    00000004     
                  00001394    00000004     hello_pem3.oem3 (.const:ti_sysbios_family_arm_m3_Hwi_Object__count__C)

.const:ti_sysbios_family_arm_m3_Hwi_Object__table__C 
*          0    00001398    00000004     
                  00001398    00000004     hello_pem3.oem3 (.const:ti_sysbios_family_arm_m3_Hwi_Object__table__C)

.const:ti_sysbios_family_arm_m3_Hwi_ccr__C 
*          0    0000139c    00000004     
                  0000139c    00000004     hello_pem3.oem3 (.const:ti_sysbios_family_arm_m3_Hwi_ccr__C)

.const:ti_sysbios_family_arm_m3_Hwi_excHandlerFunc__C 
*          0    000013a0    00000004     
                  000013a0    00000004     hello_pem3.oem3 (.const:ti_sysbios_family_arm_m3_Hwi_excHandlerFunc__C)

.const:ti_sysbios_family_arm_m3_Hwi_nullIsrFunc__C 
*          0    000013a4    00000004     
                  000013a4    00000004     hello_pem3.oem3 (.const:ti_sysbios_family_arm_m3_Hwi_nullIsrFunc__C)

.const:ti_sysbios_family_arm_m3_Hwi_numSparseInterrupts__C 
*          0    000013a8    00000004     
                  000013a8    00000004     hello_pem3.oem3 (.const:ti_sysbios_family_arm_m3_Hwi_numSparseInterrupts__C)

.const:ti_sysbios_family_arm_m3_Hwi_priGroup__C 
*          0    000013ac    00000004     
                  000013ac    00000004     hello_pem3.oem3 (.const:ti_sysbios_family_arm_m3_Hwi_priGroup__C)

.const:ti_sysbios_family_arm_m3_TaskSupport_stackAlignment__C 
*          0    000013b0    00000004     
                  000013b0    00000004     hello_pem3.oem3 (.const:ti_sysbios_family_arm_m3_TaskSupport_stackAlignment__C)

.const:ti_sysbios_heaps_HeapMem_E_memory__C 
*          0    000013b4    00000004     
                  000013b4    00000004     hello_pem3.oem3 (.const:ti_sysbios_heaps_HeapMem_E_memory__C)

.const:ti_sysbios_heaps_HeapMem_Module__gateObj__C 
*          0    000013b8    00000004     
                  000013b8    00000004     hello_pem3.oem3 (.const:ti_sysbios_heaps_HeapMem_Module__gateObj__C)

.const:ti_sysbios_heaps_HeapMem_Object__count__C 
*          0    000013bc    00000004     
                  000013bc    00000004     hello_pem3.oem3 (.const:ti_sysbios_heaps_HeapMem_Object__count__C)

.const:ti_sysbios_heaps_HeapMem_Object__table__C 
*          0    000013c0    00000004     
                  000013c0    00000004     hello_pem3.oem3 (.const:ti_sysbios_heaps_HeapMem_Object__table__C)

.const:ti_sysbios_heaps_HeapMem_reqAlign__C 
*          0    000013c4    00000004     
                  000013c4    00000004     hello_pem3.oem3 (.const:ti_sysbios_heaps_HeapMem_reqAlign__C)

.const:ti_sysbios_knl_Clock_serviceMargin__C 
*          0    000013c8    00000004     
                  000013c8    00000004     hello_pem3.oem3 (.const:ti_sysbios_knl_Clock_serviceMargin__C)

.const:ti_sysbios_knl_Mailbox_Object__count__C 
*          0    000013cc    00000004     
                  000013cc    00000004     hello_pem3.oem3 (.const:ti_sysbios_knl_Mailbox_Object__count__C)

.const:ti_sysbios_knl_Mailbox_Object__table__C 
*          0    000013d0    00000004     
                  000013d0    00000004     hello_pem3.oem3 (.const:ti_sysbios_knl_Mailbox_Object__table__C)

.const:ti_sysbios_knl_Mailbox_maxTypeAlign__C 
*          0    000013d4    00000004     
                  000013d4    00000004     hello_pem3.oem3 (.const:ti_sysbios_knl_Mailbox_maxTypeAlign__C)

.const:ti_sysbios_knl_Queue_Object__count__C 
*          0    000013d8    00000004     
                  000013d8    00000004     hello_pem3.oem3 (.const:ti_sysbios_knl_Queue_Object__count__C)

.const:ti_sysbios_knl_Queue_Object__table__C 
*          0    000013dc    00000004     
                  000013dc    00000004     hello_pem3.oem3 (.const:ti_sysbios_knl_Queue_Object__table__C)

.const:ti_sysbios_knl_Swi_Object__count__C 
*          0    000013e0    00000004     
                  000013e0    00000004     hello_pem3.oem3 (.const:ti_sysbios_knl_Swi_Object__count__C)

.const:ti_sysbios_knl_Swi_Object__table__C 
*          0    000013e4    00000004     
                  000013e4    00000004     hello_pem3.oem3 (.const:ti_sysbios_knl_Swi_Object__table__C)

.const:ti_sysbios_knl_Swi_numPriorities__C 
*          0    000013e8    00000004     
                  000013e8    00000004     hello_pem3.oem3 (.const:ti_sysbios_knl_Swi_numPriorities__C)

.const:ti_sysbios_knl_Task_Object__count__C 
*          0    000013ec    00000004     
                  000013ec    00000004     hello_pem3.oem3 (.const:ti_sysbios_knl_Task_Object__count__C)

.const:ti_sysbios_knl_Task_Object__table__C 
*          0    000013f0    00000004     
                  000013f0    00000004     hello_pem3.oem3 (.const:ti_sysbios_knl_Task_Object__table__C)

.const:ti_sysbios_knl_Task_allBlockedFunc__C 
*          0    000013f4    00000004     
                  000013f4    00000004     hello_pem3.oem3 (.const:ti_sysbios_knl_Task_allBlockedFunc__C)

.const:ti_sysbios_knl_Task_defaultStackHeap__C 
*          0    000013f8    00000004     
                  000013f8    00000004     hello_pem3.oem3 (.const:ti_sysbios_knl_Task_defaultStackHeap__C)

.const:ti_sysbios_knl_Task_defaultStackSize__C 
*          0    000013fc    00000004     
                  000013fc    00000004     hello_pem3.oem3 (.const:ti_sysbios_knl_Task_defaultStackSize__C)

.const:ti_sysbios_knl_Task_numConstructedTasks__C 
*          0    00001400    00000004     
                  00001400    00000004     hello_pem3.oem3 (.const:ti_sysbios_knl_Task_numConstructedTasks__C)

.const:ti_sysbios_family_arm_cc26xx_Timer_Module__id__C 
*          0    00001406    00000002     
                  00001406    00000002     hello_pem3.oem3 (.const:ti_sysbios_family_arm_cc26xx_Timer_Module__id__C)

.const:ti_sysbios_family_arm_cc26xx_TimestampProvider_useClockTimer__C 
*          0    00001408    00000002     
                  00001408    00000002     hello_pem3.oem3 (.const:ti_sysbios_family_arm_cc26xx_TimestampProvider_useClockTimer__C)

.const:ti_sysbios_family_arm_m3_Hwi_Module__id__C 
*          0    0000140a    00000002     
                  0000140a    00000002     hello_pem3.oem3 (.const:ti_sysbios_family_arm_m3_Hwi_Module__id__C)

.const:ti_sysbios_gates_GateHwi_Module__id__C 
*          0    0000140c    00000002     
                  0000140c    00000002     hello_pem3.oem3 (.const:ti_sysbios_gates_GateHwi_Module__id__C)

.const:ti_sysbios_gates_GateMutex_Module__id__C 
*          0    0000140e    00000002     
                  0000140e    00000002     hello_pem3.oem3 (.const:ti_sysbios_gates_GateMutex_Module__id__C)

.const:ti_sysbios_heaps_HeapMem_Module__id__C 
*          0    00001410    00000002     
                  00001410    00000002     hello_pem3.oem3 (.const:ti_sysbios_heaps_HeapMem_Module__id__C)

.const:ti_sysbios_knl_Task_initStackFlag__C 
*          0    00001412    00000002     
                  00001412    00000002     hello_pem3.oem3 (.const:ti_sysbios_knl_Task_initStackFlag__C)

.const:ti_sysbios_knl_Clock_tickMode__C 
*          0    00001414    00000001     
                  00001414    00000001     hello_pem3.oem3 (.const:ti_sysbios_knl_Clock_tickMode__C)

.const:xdc_runtime_Startup_firstFxns__C 
*          0    00001418    00000008     
                  00001418    00000008     hello_pem3.oem3 (.const:xdc_runtime_Startup_firstFxns__C)

.const:xdc_runtime_Startup_lastFxns__C 
*          0    00001420    00000008     
                  00001420    00000008     hello_pem3.oem3 (.const:xdc_runtime_Startup_lastFxns__C)

.const:xdc_runtime_Assert_E_assertFailed__C 
*          0    00001428    00000004     
                  00001428    00000004     hello_pem3.oem3 (.const:xdc_runtime_Assert_E_assertFailed__C)

.const:xdc_runtime_Error_E_memory__C 
*          0    0000142c    00000004     
                  0000142c    00000004     hello_pem3.oem3 (.const:xdc_runtime_Error_E_memory__C)

.const:xdc_runtime_Error_policyFxn__C 
*          0    00001430    00000004     
                  00001430    00000004     hello_pem3.oem3 (.const:xdc_runtime_Error_policyFxn__C)

.const:xdc_runtime_IGateProvider_Interface__BASE__C 
*          0    00001434    00000004     
                  00001434    00000004     hello_pem3.oem3 (.const:xdc_runtime_IGateProvider_Interface__BASE__C)

.const:xdc_runtime_IHeap_Interface__BASE__C 
*          0    00001438    00000004     
                  00001438    00000004     hello_pem3.oem3 (.const:xdc_runtime_IHeap_Interface__BASE__C)

.const:xdc_runtime_IModule_Interface__BASE__C 
*          0    0000143c    00000004     
                  0000143c    00000004     hello_pem3.oem3 (.const:xdc_runtime_IModule_Interface__BASE__C)

.const:xdc_runtime_Main_Module__diagsEnabled__C 
*          0    00001440    00000004     
                  00001440    00000004     hello_pem3.oem3 (.const:xdc_runtime_Main_Module__diagsEnabled__C)

.const:xdc_runtime_Main_Module__diagsIncluded__C 
*          0    00001444    00000004     
                  00001444    00000004     hello_pem3.oem3 (.const:xdc_runtime_Main_Module__diagsIncluded__C)

.const:xdc_runtime_Main_Module__diagsMask__C 
*          0    00001448    00000004     
                  00001448    00000004     hello_pem3.oem3 (.const:xdc_runtime_Main_Module__diagsMask__C)

.const:xdc_runtime_Memory_defaultHeapInstance__C 
*          0    0000144c    00000004     
                  0000144c    00000004     hello_pem3.oem3 (.const:xdc_runtime_Memory_defaultHeapInstance__C)

.const:xdc_runtime_Startup_execImpl__C 
*          0    00001450    00000004     
                  00001450    00000004     hello_pem3.oem3 (.const:xdc_runtime_Startup_execImpl__C)

.const:xdc_runtime_Startup_maxPasses__C 
*          0    00001454    00000004     
                  00001454    00000004     hello_pem3.oem3 (.const:xdc_runtime_Startup_maxPasses__C)

.const:xdc_runtime_Startup_sfxnRts__C 
*          0    00001458    00000004     
                  00001458    00000004     hello_pem3.oem3 (.const:xdc_runtime_Startup_sfxnRts__C)

.const:xdc_runtime_Startup_sfxnTab__C 
*          0    0000145c    00000004     
                  0000145c    00000004     hello_pem3.oem3 (.const:xdc_runtime_Startup_sfxnTab__C)

.const:xdc_runtime_Startup_startModsFxn__C 
*          0    00001460    00000004     
                  00001460    00000004     hello_pem3.oem3 (.const:xdc_runtime_Startup_startModsFxn__C)

.const:xdc_runtime_SysCallback_abortFxn__C 
*          0    00001464    00000004     
                  00001464    00000004     hello_pem3.oem3 (.const:xdc_runtime_SysCallback_abortFxn__C)

.const:xdc_runtime_SysCallback_exitFxn__C 
*          0    00001468    00000004     
                  00001468    00000004     hello_pem3.oem3 (.const:xdc_runtime_SysCallback_exitFxn__C)

.const:xdc_runtime_System_abortFxn__C 
*          0    0000146c    00000004     
                  0000146c    00000004     hello_pem3.oem3 (.const:xdc_runtime_System_abortFxn__C)

.const:xdc_runtime_System_exitFxn__C 
*          0    00001470    00000004     
                  00001470    00000004     hello_pem3.oem3 (.const:xdc_runtime_System_exitFxn__C)

.const:xdc_runtime_System_maxAtexitHandlers__C 
*          0    00001474    00000004     
                  00001474    00000004     hello_pem3.oem3 (.const:xdc_runtime_System_maxAtexitHandlers__C)

.const:xdc_runtime_Text_charTab__C 
*          0    00001478    00000004     
                  00001478    00000004     hello_pem3.oem3 (.const:xdc_runtime_Text_charTab__C)

.const:xdc_runtime_Text_nameEmpty__C 
*          0    0000147c    00000004     
                  0000147c    00000004     hello_pem3.oem3 (.const:xdc_runtime_Text_nameEmpty__C)

.const:xdc_runtime_Text_nameStatic__C 
*          0    00001480    00000004     
                  00001480    00000004     hello_pem3.oem3 (.const:xdc_runtime_Text_nameStatic__C)

.const:xdc_runtime_Text_nameUnknown__C 
*          0    00001484    00000004     
                  00001484    00000004     hello_pem3.oem3 (.const:xdc_runtime_Text_nameUnknown__C)

.const:xdc_runtime_Main_Module__id__C 
*          0    00001488    00000002     
                  00001488    00000002     hello_pem3.oem3 (.const:xdc_runtime_Main_Module__id__C)

.const:xdc_runtime_Memory_Module__id__C 
*          0    0000148a    00000002     
                  0000148a    00000002     hello_pem3.oem3 (.const:xdc_runtime_Memory_Module__id__C)

.const:xdc_runtime_Text_charCnt__C 
*          0    0000148c    00000002     
                  0000148c    00000002     hello_pem3.oem3 (.const:xdc_runtime_Text_charCnt__C)

.const:xdc_runtime_Text_isLoaded__C 
*          0    0000148e    00000002     
                  0000148e    00000002     hello_pem3.oem3 (.const:xdc_runtime_Text_isLoaded__C)

.const:xdc_runtime_Error_policy__C 
*          0    00001490    00000001     
                  00001490    00000001     hello_pem3.oem3 (.const:xdc_runtime_Error_policy__C)

.const:ti_sysbios_rom_ROM_AONRTCChannelEnable 
*          0    00001494    00000004     
                  00001494    00000004     hello_pem3.oem3 (.const:ti_sysbios_rom_ROM_AONRTCChannelEnable)

.const:ti_sysbios_rom_ROM_AONRTCCompareValueSet 
*          0    00001498    00000004     
                  00001498    00000004     hello_pem3.oem3 (.const:ti_sysbios_rom_ROM_AONRTCCompareValueSet)

.const:ti_sysbios_rom_ROM_AONRTCCurrentCompareValueGet 
*          0    0000149c    00000004     
                  0000149c    00000004     hello_pem3.oem3 (.const:ti_sysbios_rom_ROM_AONRTCCurrentCompareValueGet)

.const:ti_sysbios_rom_ROM_AONRTCEventClear 
*          0    000014a0    00000004     
                  000014a0    00000004     hello_pem3.oem3 (.const:ti_sysbios_rom_ROM_AONRTCEventClear)

.const:ti_sysbios_rom_ROM_ti_sysbios_family_arm_cc26xx_Timer_getCount64__E 
*          0    000014a4    00000004     
                  000014a4    00000004     hello_pem3.oem3 (.const:ti_sysbios_rom_ROM_ti_sysbios_family_arm_cc26xx_Timer_getCount64__E)

.const:ti_sysbios_rom_ROM_ti_sysbios_family_arm_cc26xx_Timer_getCurrentTick__E 
*          0    000014a8    00000004     
                  000014a8    00000004     hello_pem3.oem3 (.const:ti_sysbios_rom_ROM_ti_sysbios_family_arm_cc26xx_Timer_getCurrentTick__E)

.const:ti_sysbios_rom_ROM_ti_sysbios_family_arm_cc26xx_Timer_getMaxTicks__E 
*          0    000014ac    00000004     
                  000014ac    00000004     hello_pem3.oem3 (.const:ti_sysbios_rom_ROM_ti_sysbios_family_arm_cc26xx_Timer_getMaxTicks__E)

.const:ti_sysbios_rom_ROM_ti_sysbios_family_arm_cc26xx_Timer_initDevice__I 
*          0    000014b0    00000004     
                  000014b0    00000004     hello_pem3.oem3 (.const:ti_sysbios_rom_ROM_ti_sysbios_family_arm_cc26xx_Timer_initDevice__I)

.const:ti_sysbios_rom_ROM_ti_sysbios_family_arm_cc26xx_Timer_setNextTick__E 
*          0    000014b4    00000004     
                  000014b4    00000004     hello_pem3.oem3 (.const:ti_sysbios_rom_ROM_ti_sysbios_family_arm_cc26xx_Timer_setNextTick__E)

.const:ti_sysbios_rom_ROM_ti_sysbios_family_arm_cc26xx_Timer_setThreshold__I 
*          0    000014b8    00000004     
                  000014b8    00000004     hello_pem3.oem3 (.const:ti_sysbios_rom_ROM_ti_sysbios_family_arm_cc26xx_Timer_setThreshold__I)

.const:ti_sysbios_rom_ROM_ti_sysbios_family_arm_cc26xx_Timer_start__E 
*          0    000014bc    00000004     
                  000014bc    00000004     hello_pem3.oem3 (.const:ti_sysbios_rom_ROM_ti_sysbios_family_arm_cc26xx_Timer_start__E)

.const:ti_sysbios_rom_ROM_ti_sysbios_family_arm_cc26xx_TimestampProvider_get32__E 
*          0    000014c0    00000004     
                  000014c0    00000004     hello_pem3.oem3 (.const:ti_sysbios_rom_ROM_ti_sysbios_family_arm_cc26xx_TimestampProvider_get32__E)

.const:ti_sysbios_rom_ROM_xdc_runtime_Startup_getState__I 
*          0    000014c4    00000004     
                  000014c4    00000004     hello_pem3.oem3 (.const:ti_sysbios_rom_ROM_xdc_runtime_Startup_getState__I)

.const:ti_sysbios_rom_ROM_xdc_runtime_System_SupportProxy_abort__E 
*          0    000014c8    00000004     
                  000014c8    00000004     hello_pem3.oem3 (.const:ti_sysbios_rom_ROM_xdc_runtime_System_SupportProxy_abort__E)

.const:ti_sysbios_rom_ROM_xdc_runtime_System_SupportProxy_exit__E 
*          0    000014cc    00000004     
                  000014cc    00000004     hello_pem3.oem3 (.const:ti_sysbios_rom_ROM_xdc_runtime_System_SupportProxy_exit__E)

.const:ti_sysbios_gates_GateMutex_Instance_State_sem__O 
*          0    000014d0    00000004     
                  000014d0    00000004     hello_pem3.oem3 (.const:ti_sysbios_gates_GateMutex_Instance_State_sem__O)

.const:ti_sysbios_knl_Clock_Module_State_clockQ__O 
*          0    000014d4    00000004     
                  000014d4    00000004     hello_pem3.oem3 (.const:ti_sysbios_knl_Clock_Module_State_clockQ__O)

.const:ti_sysbios_knl_Mailbox_Instance_State_dataQue__O 
*          0    000014d8    00000004     
                  000014d8    00000004     hello_pem3.oem3 (.const:ti_sysbios_knl_Mailbox_Instance_State_dataQue__O)

.const:ti_sysbios_knl_Mailbox_Instance_State_dataSem__O 
*          0    000014dc    00000004     
                  000014dc    00000004     hello_pem3.oem3 (.const:ti_sysbios_knl_Mailbox_Instance_State_dataSem__O)

.const:ti_sysbios_knl_Mailbox_Instance_State_freeQue__O 
*          0    000014e0    00000004     
                  000014e0    00000004     hello_pem3.oem3 (.const:ti_sysbios_knl_Mailbox_Instance_State_freeQue__O)

.const:ti_sysbios_knl_Mailbox_Instance_State_freeSem__O 
*          0    000014e4    00000004     
                  000014e4    00000004     hello_pem3.oem3 (.const:ti_sysbios_knl_Mailbox_Instance_State_freeSem__O)

.const:ti_sysbios_knl_Semaphore_Instance_State_pendQ__O 
*          0    000014e8    00000004     
                  000014e8    00000004     hello_pem3.oem3 (.const:ti_sysbios_knl_Semaphore_Instance_State_pendQ__O)

.const:ti_sysbios_knl_Task_Module_State_inactiveQ__O 
*          0    000014ec    00000004     
                  000014ec    00000004     hello_pem3.oem3 (.const:ti_sysbios_knl_Task_Module_State_inactiveQ__O)

.ccfg      0    0001ffa8    00000058     
                  0001ffa8    00000058     ccfg.obj (.ccfg:retain)

.data:ti_sysbios_knl_Task_Module__state__V 
*          0    20000100    00000044     UNINITIALIZED
                  20000100    00000044     hello_pem3.oem3 (.data:ti_sysbios_knl_Task_Module__state__V)

.data:ti_sysbios_family_arm_m3_Hwi_Module__state__V 
*          0    20000144    00000034     UNINITIALIZED
                  20000144    00000034     hello_pem3.oem3 (.data:ti_sysbios_family_arm_m3_Hwi_Module__state__V)

.data:ti_sysbios_knl_Clock_Module__state__V 
*          0    20000178    0000002c     UNINITIALIZED
                  20000178    0000002c     hello_pem3.oem3 (.data:ti_sysbios_knl_Clock_Module__state__V)

.data:ti_sysbios_BIOS_Module__state__V 
*          0    200001a4    00000024     UNINITIALIZED
                  200001a4    00000024     hello_pem3.oem3 (.data:ti_sysbios_BIOS_Module__state__V)

.data:ti_sysbios_knl_Swi_Module__state__V 
*          0    200001c8    0000001c     UNINITIALIZED
                  200001c8    0000001c     hello_pem3.oem3 (.data:ti_sysbios_knl_Swi_Module__state__V)

.data:ti_sysbios_family_arm_cc26xx_Timer_Module__state__V 
*          0    200001e4    00000008     UNINITIALIZED
                  200001e4    00000008     hello_pem3.oem3 (.data:ti_sysbios_family_arm_cc26xx_Timer_Module__state__V)

.data:ti_sysbios_family_arm_cc26xx_TimestampProvider_Module__state__V 
*          0    200001ec    00000004     UNINITIALIZED
                  200001ec    00000004     hello_pem3.oem3 (.data:ti_sysbios_family_arm_cc26xx_TimestampProvider_Module__state__V)

.data:xdc_runtime_Startup_Module__state__V 
*          0    200001f0    00000008     UNINITIALIZED
                  200001f0    00000008     hello_pem3.oem3 (.data:xdc_runtime_Startup_Module__state__V)

.data:xdc_runtime_System_Module__state__V 
*          0    200001f8    00000008     UNINITIALIZED
                  200001f8    00000008     hello_pem3.oem3 (.data:xdc_runtime_System_Module__state__V)

.data:xdc_runtime_Memory_Module__state__V 
*          0    20000200    00000004     UNINITIALIZED
                  20000200    00000004     hello_pem3.oem3 (.data:xdc_runtime_Memory_Module__state__V)

.bss       0    20000280    00002f50     UNINITIALIZED
                  20000280    00000400     main.obj (.bss:gpsTaskStack)
                  20000680    00000400     (.common:ti_uia_loggers_LoggerStopMode_Instance_State_0_packetArray__A)
                  20000a80    00000400     (.common:ti_uia_loggers_LoggerStopMode_Instance_State_1_packetArray__A)
                  20000e80    000002d0     rf_multiMode_cc13x0.aem3 : RFCC26XX_multiMode.oem3 (.bss:$O1$$)
                  20001150    000002bc     main.obj (.bss:txDataTaskStack)
                  2000140c    00000200     (.common:xdc_runtime_SysMin_Module_State_0_outbuf__A)
                  2000160c    000001c4     main.obj (.bss:accelTaskStack)
                  200017d0    000001c4     main.obj (.bss:gyroTaskStack)
                  20001994    000001c4     main.obj (.bss:magTaskStack)
                  20001b58    00000190     main.obj (.bss:adcTaskStack)
                  20001ce8    0000012c     main.obj (.bss:pwmTaskStack)
                  20001e14    0000012c     main.obj (.bss:rxBeaconTaskStack)
                  20001f40    0000012c     main.obj (.bss:rxRestartTaskStack)
                  2000206c    0000012c     (.common:uartCC26XXObjects)
                  20002198    00000120     rtsv7M3_T_le_eabi.lib : trgmsg.obj (.bss:_CIOBUF_)
                  200022b8    00000120     (.common:gptimerCC26XXObjects)
                  200023d8    00000110     drivers_cc13x0.aem3 : PINCC26XX.oem3 (.bss:$O1$$)
                  200024e8    00000100     (.common:pwmtimerCC26xxObjects)
                  200025e8    000000e0     (.common:i2cCC26xxObjects)
                  200026c8    000000dc     (.common:adcCC26xxObjects)
                  200027a4    00000004     (.common:ClockP_tickPeriod)
                  200027a8    000000c8     EasyLink.obj (.bss:rfObject)
                  20002870    000000c8     (.common:ti_sysbios_family_arm_m3_Hwi_dispatchTable)
                  20002938    00000098     EasyLink.obj (.bss:rxBuffer)
                  200029d0    00000098     EasyLink.obj (.bss:rxPacket$1)
                  20002a68    0000008c     EasyLink.obj (.bss:txBuffer)
                  20002af4    00000050     (.common:accelTask)
                  20002b44    00000050     (.common:adcTask)
                  20002b94    00000050     (.common:gpsTask)
                  20002be4    00000050     (.common:gyroTask)
                  20002c34    00000050     (.common:magTask)
                  20002c84    00000050     (.common:pwmTask)
                  20002cd4    00000050     (.common:rxBeaconTask)
                  20002d24    00000050     (.common:rxRestartTask)
                  20002d74    00000050     (.common:txDataTask)
                  20002dc4    00000030     EasyLink.obj (.bss:EasyLink_cmdPropRxAdv)
                  20002df4    0000000c     main.obj (.bss:pinState)
                  20002e00    00000030     (.common:ti_uia_loggers_LoggerStopMode_Instance_State_0_hdr__A)
                  20002e30    00000028     EasyLink.obj (.bss:EasyLink_cmdPropRadioSetup)
                  20002e58    00000028     main.obj (.bss)
                  20002e80    00000030     (.common:ti_uia_loggers_LoggerStopMode_Instance_State_1_hdr__A)
                  20002eb0    00000028     (.common:watchdogCC26XXObjects)
                  20002ed8    00000026     (.common:settings)
                  20002efe    00000002     drivers_cc13x0.aem3 : UARTCC26XX.oem3 (.bss)
                  20002f00    00000024     (.common:clk0Struct)
                  20002f24    00000024     (.common:uartParams)
                  20002f48    0000001c     rtsv7M3_T_le_eabi.lib : vla_alloc.obj (.bss:$O1$$)
                  20002f64    0000001c     main.obj (.bss:accelSemaphore)
                  20002f80    0000001c     main.obj (.bss:batonSemaphore)
                  20002f9c    0000001c     main.obj (.bss:gyroSemaphore)
                  20002fb8    0000001c     main.obj (.bss:magSemaphore)
                  20002fd4    0000001c     main.obj (.bss:readSemaphore)
                  20002ff0    0000001c     EasyLink.obj (.bss:rfParams)
                  2000300c    0000001c     main.obj (.bss:rxBeaconSemaphore)
                  20003028    0000001c     main.obj (.bss:rxRestartSemaphore)
                  20003044    0000001c     main.obj (.bss:txDataSemaphore)
                  20003060    0000001c     (.common:i2cTransaction)
                  2000307c    00000018     EasyLink.obj (.bss:EasyLink_cmdFs)
                  20003094    00000018     EasyLink.obj (.bss:EasyLink_cmdPropTx)
                  200030ac    00000018     (.common:pwmparams)
                  200030c4    00000014     driverlib.lib : osc.obj (.bss:oscHfGlobals)
                  200030d8    00000014     (.common:Connections)
                  200030ec    00000010     EasyLink.obj (.bss)
                  200030fc    00000010     EasyLink.obj (.bss:EasyLink_RF_prop)
                  2000310c    00000010     (.common:i2cParams)
                  2000311c    0000000c     EasyLink.obj (.bss:rxStatistics)
                  20003128    0000000c     (.common:aBias)
                  20003134    0000000c     (.common:gBias)
                  20003140    0000000c     (.common:mBias)
                  2000314c    00000008     dpl_cc13x0.aem3 : PowerCC26XX_tirtos.oem3 (.bss:$O1$$)
                  20003154    00000008     EasyLink.obj (.bss:dataQueue)
                  2000315c    00000008     rtsv7M3_T_le_eabi.lib : trgdrv.obj (.bss:parmbuf)
                  20003164    00000008     driverlib.lib : sys_ctrl.obj (.bss:powerQualGlobals)
                  2000316c    00000008     (.common:aBiasRaw)
                  20003174    00000008     (.common:gBiasRaw)
                  2000317c    00000008     (.common:mBiasRaw)
                  20003184    00000008     (.common:params)
                  2000318c    00000004     (.common:aRes)
                  20003190    00000004     (.common:adc0)
                  20003194    00000004     (.common:adc1)
                  20003198    00000004     (.common:adcValue0MicroVolt)
                  2000319c    00000004     (.common:adcValue1MicroVolt)
                  200031a0    00000004     (.common:gRes)
                  200031a4    00000004     (.common:i2c)
                  200031a8    00000004     (.common:mRes)
                  200031ac    00000004     (.common:uart)
                  200031b0    00000004     (.common:watchdogHandle)
                  200031b4    00000002     rf_multiMode_cc13x0.aem3 : RFCC26XX_multiMode.oem3 (.bss)
                  200031b6    00000002     (.common:adcValue0)
                  200031b8    00000002     (.common:adcValue1)
                  200031ba    00000002     (.common:ax)
                  200031bc    00000002     (.common:ay)
                  200031be    00000002     (.common:az)
                  200031c0    00000002     (.common:gx)
                  200031c2    00000002     (.common:gy)
                  200031c4    00000002     (.common:gz)
                  200031c6    00000002     (.common:mx)
                  200031c8    00000002     (.common:my)
                  200031ca    00000002     (.common:mz)
                  200031cc    00000001     (.common:_autoCalc)
                  200031cd    00000001     (.common:_mAddress)
                  200031ce    00000001     (.common:_xgAddress)
                  200031cf    00000001     (.common:driverlib_release_0_48919)

.data      0    200041d0    00000997     UNINITIALIZED
                  200041d0    00000114     drivers_cc13x0.aem3 : PowerCC26XX.oem3 (.data:PowerCC26XX_module)
                  200042e4    00000098     main.obj (.data:globalPacket)
                  2000437c    00000068     smartrf_settings_predefined.obj (.data:pOverrides_sl_lr)
                  200043e4    00000068     hello_pem3.oem3 (.data:ti_uia_loggers_LoggerStopMode_Object__table__V)
                  2000444c    00000060     smartrf_settings_predefined.obj (.data:pOverrides_hsm)
                  200044ac    0000005c     smartrf_settings_predefined.obj (.data:pOverrides_lrm)
                  20004508    0000005c     smartrf_settings_predefined.obj (.data:pOverrides_ook)
                  20004564    00000058     smartrf_settings.obj (.data:pOverrides)
                  200045bc    00000058     smartrf_settings_predefined.obj (.data:pOverrides_fsk)
                  20004614    00000004     rtsv7M3_T_le_eabi.lib : stkdepth_vars.obj (.data)
                  20004618    00000048     hello_pem3.oem3 (.data:ti_sysbios_family_arm_cc26xx_Timer_Object__table__V)
                  20004660    00000044     smartrf_settings_predefined.obj (.data)
                  200046a4    00000038     hello_pem3.oem3 (.data:ti_sysbios_gates_GateMutex_Object__table__V)
                  200046dc    00000030     smartrf_settings_predefined.obj (.data:RF_cmdPropRxAdv_preDef)
                  2000470c    00000030     main.obj (.data)
                  2000473c    00000030     hello_pem3.oem3 (.data:ti_sysbios_knl_Swi_Module_State_0_readyQ__A)
                  2000476c    00000030     hello_pem3.oem3 (.data:ti_sysbios_knl_Swi_Object__table__V)
                  2000479c    00000030     hello_pem3.oem3 (.data:ti_sysbios_knl_Task_Module_State_0_readyQ__A)
                  200047cc    00000028     smartrf_settings.obj (.data:RF_cmdPropRadioDivSetup)
                  200047f4    00000028     smartrf_settings_predefined.obj (.data:RF_cmdPropRadioDivSetup_fsk)
                  2000481c    00000028     smartrf_settings_predefined.obj (.data:RF_cmdPropRadioDivSetup_lrm)
                  20004844    00000028     smartrf_settings_predefined.obj (.data:RF_cmdPropRadioDivSetup_ook)
                  2000486c    00000028     smartrf_settings_predefined.obj (.data:RF_cmdPropRadioDivSetup_sl_lr)
                  20004894    00000024     smartrf_settings_predefined.obj (.data:RF_cmdRxHS)
                  200048b8    00000020     drivers_cc13x0.aem3 : ADCCC26XX.oem3 (.data:$O1$$)
                  200048d8    00000020     main.obj (.data:pinTable)
                  200048f8    00000020     hello_pem3.oem3 (.data:ti_sysbios_knl_Clock_Object__table__V)
                  20004918    00000020     hello_pem3.oem3 (.data:xdc_runtime_Error_IgnoreBlock)
                  20004938    00000018     smartrf_settings.obj (.data:RF_cmdFs)
                  20004950    00000018     smartrf_settings_predefined.obj (.data:RF_cmdFs_preDef)
                  20004968    00000018     smartrf_settings.obj (.data:RF_cmdPropTx)
                  20004980    00000018     smartrf_settings_predefined.obj (.data:RF_cmdPropTx_preDef)
                  20004998    00000018     smartrf_settings_predefined.obj (.data:RF_cmdRadioSetup_hsm)
                  200049b0    00000018     EasyLink.obj (.data:addrFilterTable)
                  200049c8    00000018     smartrf_settings_predefined.obj (.data:shapeovr)
                  200049e0    00000018     hello_pem3.oem3 (.data:ti_sysbios_family_arm_m3_Hwi_Object__table__V)
                  200049f8    00000018     hello_pem3.oem3 (.data:ti_sysbios_heaps_HeapMem_Object__table__V)
                  20004a10    00000014     smartrf_settings_predefined.obj (.data:RF_cmdTxHS)
                  20004a24    00000010     drivers_cc13x0.aem3 : PWMTimerCC26XX.oem3 (.data:$O1$$)
                  20004a34    00000010     main.obj (.data:AddressList)
                  20004a44    00000010     smartrf_settings.obj (.data:RF_prop)
                  20004a54    00000010     smartrf_settings_predefined.obj (.data:RF_prop_fsk)
                  20004a64    00000010     smartrf_settings_predefined.obj (.data:RF_prop_hsm)
                  20004a74    00000010     smartrf_settings_predefined.obj (.data:RF_prop_lrm)
                  20004a84    00000010     smartrf_settings_predefined.obj (.data:RF_prop_ook)
                  20004a94    00000010     smartrf_settings_predefined.obj (.data:RF_prop_sl_lr)
                  20004aa4    0000000e     EasyLink.obj (.data)
                  20004ab2    00000002     hello_pem3.oem3 (.data:ti_sysbios_family_arm_m3_Hwi_Module_State_0_excActive__A)
                  20004ab4    0000000c     rtsv7M3_T_le_eabi.lib : exit.obj (.data:$O1$$)
                  20004ac0    0000000c     hello_pem3.oem3 (.data:ti_sysbios_knl_Task_Module__root__V)
                  20004acc    0000000c     hello_pem3.oem3 (.data:ti_uia_runtime_QueueDescriptor_Module__state__V)
                  20004ad8    0000000c     hello_pem3.oem3 (.data:xdc_runtime_SysMin_Module__state__V)
                  20004ae4    00000008     rtsv7M3_T_le_eabi.lib : _lock.obj (.data:$O1$$)
                  20004aec    00000008     ti.uia.runtime.aem3 : QueueDescriptor.oem3 (.data)
                  20004af4    00000008     hello_pem3.oem3 (.data:ti_sysbios_family_arm_m3_Hwi_Module__root__V)
                  20004afc    00000008     hello_pem3.oem3 (.data:ti_sysbios_gates_GateHwi_Module__root__V)
                  20004b04    00000008     hello_pem3.oem3 (.data:ti_sysbios_gates_GateMutex_Module__root__V)
                  20004b0c    00000008     hello_pem3.oem3 (.data:ti_sysbios_hal_Hwi_Module__root__V)
                  20004b14    00000008     hello_pem3.oem3 (.data:ti_sysbios_heaps_HeapMem_Module__root__V)
                  20004b1c    00000008     hello_pem3.oem3 (.data:ti_sysbios_knl_Clock_Module__root__V)
                  20004b24    00000008     hello_pem3.oem3 (.data:ti_sysbios_knl_Mailbox_Module__root__V)
                  20004b2c    00000008     hello_pem3.oem3 (.data:ti_sysbios_knl_Queue_Module__root__V)
                  20004b34    00000008     hello_pem3.oem3 (.data:ti_sysbios_knl_Semaphore_Module__root__V)
                  20004b3c    00000008     hello_pem3.oem3 (.data:ti_sysbios_knl_Swi_Module__root__V)
                  20004b44    00000008     hello_pem3.oem3 (.data:ti_uia_loggers_LoggerStopMode_Module__root__V)
                  20004b4c    00000008     hello_pem3.oem3 (.data:xdc_runtime_System_Module_State_0_atexitHandlers__A)
                  20004b54    00000004     hello_pem3.oem3 (.data:ti_sysbios_family_arm_m3_Hwi_Module_State_0_excContext__A)
                  20004b58    00000004     hello_pem3.oem3 (.data:ti_sysbios_family_arm_m3_Hwi_Module_State_0_excStack__A)
                  20004b5c    00000004     hello_pem3.oem3 (.data:ti_sysbios_knl_Task_Module_State_0_idleTask__A)
                  20004b60    00000002     hello_pem3.oem3 (.data:xdc_runtime_Main_Module__root__V)
                  20004b62    00000001     drivers_cc13x0.aem3 : ADC.oem3 (.data)
                  20004b63    00000001                         : I2C.oem3 (.data)
                  20004b64    00000001                         : PWM.oem3 (.data)
                  20004b65    00000001                         : UART.oem3 (.data)
                  20004b66    00000001                         : Watchdog.oem3 (.data)

.priheap   0    200031d0    00001000     UNINITIALIZED
                  200031d0    00001000     --HOLE--

.stack     0    20004c00    00000400     UNINITIALIZED
                  20004c00    00000400     --HOLE--

.bootVecs 
*          0    00000000    00000008     DSECT
                  00000000    00000008     boot.aem3 : boot.oem3 (.bootVecs)

.resetVecs 
*          0    00000000    0000003c     
                  00000000    0000003c     hello_pem3.oem3 (.resetVecs)

.vecs      0    20000000    000000c8     NOLOAD SECTION
                  20000000    000000c8     hello_pem3.oem3 (.vecs)

xdc.meta   0    00000000    000000f0     COPY SECTION
                  00000000    000000f0     hello_pem3.oem3 (xdc.meta)

xdc.noload 
*          0    00000000    00000000     COPY SECTION

.binit     0    00000000    00000000     

MODULE SUMMARY

       Module                            code    ro data   rw data
       ------                            ----    -------   -------
    ./
       main.obj                          6182    147       5955   
       CC1310_LAUNCHXL.obj               24      694       1328   
       ccfg.obj                          0       88        0      
    +--+---------------------------------+-------+---------+---------+
       Total:                            6206    929       7283   
                                                                  
    ./easylink/
       EasyLink.obj                      2846    28        898    
    +--+---------------------------------+-------+---------+---------+
       Total:                            2846    28        898    
                                                                  
    ./smartrf_settings/
       smartrf_settings_predefined.obj   2728    14833     980    
       smartrf_settings.obj              446     2404      192    
    +--+---------------------------------+-------+---------+---------+
       Total:                            3174    17237     1172   
                                                                  
    /Users/hunteradams/Documents/MSP430/workspace/Sprite/Debug/configPkg/package/cfg/
       hello_pem3.oem3                   2212    1705      3952   
    +--+---------------------------------+-------+---------+---------+
       Total:                            2212    1705      3952   
                                                                  
    /Applications/ccsv7/tools/compiler/ti-cgt-arm_16.9.3.LTS/lib/rtsv7M3_T_le_eabi.lib
       trgdrv.obj                        804     0         8      
       vla_alloc.obj                     584     0         28     
       ull_div_t2.obj                    500     0         0      
       trgmsg.obj                        104     0         288    
       memcpy_t2.obj                     156     0         0      
       memset_t2.obj                     122     0         0      
       copy_decompress_lzss.obj          104     0         0      
       exit.obj                          84      0         12     
       cpy_tbl.obj                       76      0         0      
       _lock.obj                         20      0         8      
       args_main.obj                     24      0         0      
       ll_mul_t2.obj                     24      0         0      
       strcpy.obj                        22      0         0      
       strlen.obj                        20      0         0      
       copy_decompress_none.obj          14      0         0      
       copy_zero_init.obj                12      0         0      
       error.obj                         4       0         0      
       stkdepth_vars.obj                 0       0         4      
    +--+---------------------------------+-------+---------+---------+
       Total:                            2674    0         348    
                                                                  
    /Applications/ti/simplelink_cc13x0_sdk_1_40_00_10/kernel/tirtos/packages/ti/dpl/lib/dpl_cc13x0.aem3
       PowerCC26XX_tirtos.oem3           276     0         8      
       ClockP_tirtos.oem3                118     0         4      
       HwiP_tirtos.oem3                  108     0         0      
       SwiP_tirtos.oem3                  96      0         0      
       SemaphoreP_tirtos.oem3            70      0         0      
    +--+---------------------------------+-------+---------+---------+
       Total:                            668     0         12     
                                                                  
    /Applications/ti/simplelink_cc13x0_sdk_1_40_00_10/kernel/tirtos/packages/ti/targets/arm/rtsarm/lib/auto_init.aem3
       auto_init.oem3                    160     0         0      
    +--+---------------------------------+-------+---------+---------+
       Total:                            160     0         0      
                                                                  
    /Applications/ti/simplelink_cc13x0_sdk_1_40_00_10/kernel/tirtos/packages/ti/targets/arm/rtsarm/lib/boot.aem3
       boot.oem3                         68      0         0      
    +--+---------------------------------+-------+---------+---------+
       Total:                            68      0         0      
                                                                  
    /Applications/ti/simplelink_cc13x0_sdk_1_40_00_10/kernel/tirtos/packages/ti/uia/loggers/lib/release/ti.uia.loggers.aem3
       LoggerStopMode.oem3               552     0         0      
    +--+---------------------------------+-------+---------+---------+
       Total:                            552     0         0      
                                                                  
    /Applications/ti/simplelink_cc13x0_sdk_1_40_00_10/kernel/tirtos/packages/ti/uia/runtime/lib/release/ti.uia.runtime.aem3
       QueueDescriptor.oem3              116     0         8      
    +--+---------------------------------+-------+---------+---------+
       Total:                            116     0         8      
                                                                  
    /Applications/ti/simplelink_cc13x0_sdk_1_40_00_10/source/ti/devices/cc13x0/driverlib/bin/ccs/driverlib.lib
       setup_rom.obj                     1468    0         0      
       sys_ctrl.obj                      748     0         8      
       rfc.obj                           644     24        0      
       aux_adc.obj                       530     0         0      
       osc.obj                           388     0         20     
       setup.obj                         364     0         0      
       chipinfo.obj                      182     0         0      
       adi.obj                           88      0         0      
       aon_rtc.obj                       44      0         0      
       ddi.obj                           44      0         0      
       aon_batmon.obj                    40      0         0      
       cpu.obj                           30      0         0      
       vims.obj                          14      0         0      
       driverlib_release.obj             0       0         1      
    +--+---------------------------------+-------+---------+---------+
       Total:                            4584    24        29     
                                                                  
    /Applications/ti/simplelink_cc13x0_sdk_1_40_00_10/source/ti/display/lib/display.aem3
       Display.oem3                      42      0         0      
    +--+---------------------------------+-------+---------+---------+
       Total:                            42      0         0      
                                                                  
    /Applications/ti/simplelink_cc13x0_sdk_1_40_00_10/source/ti/drivers/lib/drivers_cc13x0.aem3
       UARTCC26XX.oem3                   2606    104       2      
       PowerCC26XX.oem3                  2136    76        276    
       PINCC26XX.oem3                    1402    0         272    
       I2CCC26XX.oem3                    1396    32        0      
       PowerCC26XX_calibrateRCOSC.oem3   1380    0         0      
       PWMTimerCC26XX.oem3               644     32        16     
       GPTimerCC26XX.oem3                640     36        0      
       ADCCC26XX.oem3                    470     24        32     
       WatchdogCC26XX.oem3               276     28        0      
       UART.oem3                         182     36        1      
       PWM.oem3                          168     24        1      
       Watchdog.oem3                     164     12        1      
       I2C.oem3                          154     16        1      
       ADC.oem3                          158     8         1      
       RingBuf.oem3                      148     0         0      
       List.oem3                         76      0         0      
    +--+---------------------------------+-------+---------+---------+
       Total:                            12000   428       603    
                                                                  
    /Applications/ti/simplelink_cc13x0_sdk_1_40_00_10/source/ti/drivers/rf/lib/rf_multiMode_cc13x0.aem3
       RFCC26XX_multiMode.oem3           6380    28        722    
    +--+---------------------------------+-------+---------+---------+
       Total:                            6380    28        722    
                                                                  
    /Users/hunteradams/Documents/MSP430/workspace/Sprite/src/sysbios/rom_sysbios.aem3
       rom_sysbios.obj                   1220    0         0      
    +--+---------------------------------+-------+---------+---------+
       Total:                            1220    0         0      
                                                                  
       Stack:                            0       0         1024   
       Linker Generated:                 464     1169      0      
    +--+---------------------------------+-------+---------+---------+
       Grand Total:                      43366   21548     16051  


LINKER GENERATED COPY TABLES

__TI_cinit_table @ 00000478 records: 12, size/record: 8, table size: 96
	.data: load addr=00000040, load size=0000035b bytes, run addr=200041d0, run size=00000997 bytes, compression=lzss
	.data:ti_sysbios_family_arm_m3_Hwi_Module__state__V: load addr=0000039b, load size=00000029 bytes, run addr=20000144, run size=00000034 bytes, compression=lzss
	.data:ti_sysbios_knl_Task_Module__state__V: load addr=000003c4, load size=00000021 bytes, run addr=20000100, run size=00000044 bytes, compression=lzss
	.data:ti_sysbios_BIOS_Module__state__V: load addr=000003e5, load size=0000001e bytes, run addr=200001a4, run size=00000024 bytes, compression=lzss
	.data:ti_sysbios_knl_Clock_Module__state__V: load addr=00000403, load size=0000001e bytes, run addr=20000178, run size=0000002c bytes, compression=lzss
	.data:ti_sysbios_knl_Swi_Module__state__V: load addr=00000421, load size=00000010 bytes, run addr=200001c8, run size=0000001c bytes, compression=lzss
	.data:ti_sysbios_family_arm_cc26xx_Timer_Module__state__V: load addr=00000440, load size=0000000b bytes, run addr=200001e4, run size=00000008 bytes, compression=lzss
	.data:xdc_runtime_System_Module__state__V: load addr=0000044b, load size=0000000b bytes, run addr=200001f8, run size=00000008 bytes, compression=lzss
	.bss: load addr=00000458, load size=00000008 bytes, run addr=20000280, run size=00002f50 bytes, compression=zero_init
	.data:xdc_runtime_Memory_Module__state__V: load addr=00000460, load size=00000008 bytes, run addr=20000200, run size=00000004 bytes, compression=lzss
	.data:ti_sysbios_family_arm_cc26xx_TimestampProvider_Module__state__V: load addr=00000468, load size=00000007 bytes, run addr=200001ec, run size=00000004 bytes, compression=lzss
	.data:xdc_runtime_Startup_Module__state__V: load addr=0000046f, load size=00000007 bytes, run addr=200001f0, run size=00000008 bytes, compression=lzss


LINKER GENERATED HANDLER TABLE

__TI_handler_table @ 00000434 records: 3, size/record: 4, table size: 12
	index: 0, handler: __TI_decompress_lzss
	index: 1, handler: __TI_decompress_none
	index: 2, handler: __TI_zero_init


FAR CALL TRAMPOLINES

callee name               trampoline name
   callee addr  tramp addr   call addr  call info
--------------  -----------  ---------  ----------------
ti_sysbios_knl_Swi_destruct  $Tramp$TT$L$PI$$ti_sysbios_knl_Swi_destruct
   1001c2e5     0000bc88     0000bc3e   dpl_cc13x0.aem3 : SwiP_tirtos.oem3 (.text:SwiP_destruct)
ti_sysbios_knl_Semaphore_destruct  $Tramp$TT$L$PI$$ti_sysbios_knl_Semaphore_destruct
   1001c2dd     0000bc90     0000bc36   dpl_cc13x0.aem3 : SemaphoreP_tirtos.oem3 (.text:SemaphoreP_destruct)
ti_sysbios_family_arm_m3_Hwi_plug__E  $Tramp$TT$L$PI$$ti_sysbios_family_arm_m3_Hwi_plug__E
   1001c061     0000bc98     0000bc1e   dpl_cc13x0.aem3 : HwiP_tirtos.oem3 (.text:HwiP_plug)
ti_sysbios_family_arm_m3_Hwi_enableInterrupt__E  $Tramp$TT$L$PI$$ti_sysbios_family_arm_m3_Hwi_enableInterrupt__E
   1001b295     0000bca0     0000bc1a   dpl_cc13x0.aem3 : HwiP_tirtos.oem3 (.text:HwiP_enableInterrupt)
ti_sysbios_family_arm_m3_Hwi_disableInterrupt__E  $Tramp$TT$L$PI$$ti_sysbios_family_arm_m3_Hwi_disableInterrupt__E
   1001b251     0000bca8     0000bc16   dpl_cc13x0.aem3 : HwiP_tirtos.oem3 (.text:HwiP_disableInterrupt)
ti_sysbios_family_arm_m3_Hwi_destruct  $Tramp$TT$L$PI$$ti_sysbios_family_arm_m3_Hwi_destruct
   1001c25d     0000bcb0     0000bc0e   dpl_cc13x0.aem3 : HwiP_tirtos.oem3 (.text:HwiP_destruct)
ti_sysbios_BIOS_getCpuFreq__E  $Tramp$TT$L$PI$$ti_sysbios_BIOS_getCpuFreq__E
   1001bff5     0000bcb8     0000bbfa   dpl_cc13x0.aem3 : ClockP_tirtos.oem3 (.text:ClockP_getCpuFreq)
ti_sysbios_knl_Clock_destruct  $Tramp$TT$L$PI$$ti_sysbios_knl_Clock_destruct
   1001c2b5     0000bcc0     0000bbf6   dpl_cc13x0.aem3 : ClockP_tirtos.oem3 (.text:ClockP_destruct)
xdc_runtime_Startup_startMods__I  $Tramp$TT$L$PI$$xdc_runtime_Startup_startMods__I
   1001c309     0000bcc8     0000b8b6   hello_pem3.oem3 (.text:xdc_runtime_Startup_exec__I)
ti_sysbios_knl_Clock_logTick__E  $Tramp$TT$L$PI$$ti_sysbios_knl_Clock_logTick__E
   1001be63     0000bcd0     0000b876   hello_pem3.oem3 (.text:ti_sysbios_knl_Clock_doTick__I)
ti_sysbios_knl_Task_Params__init__S  $Tramp$TT$L$PI$$ti_sysbios_knl_Task_Params__init__S
   1001c1d5     0000bcd8     0000b7b4   main.obj (.text:ti_sysbios_knl_Task_Params_init)
xdc_runtime_Core_assignLabel__I  $Tramp$TT$L$PI$$xdc_runtime_Core_assignLabel__I
   1001c6e9     0000bce0     0000b6bc   hello_pem3.oem3 (.text:ti_uia_loggers_LoggerStopMode_Handle__label__S)
ti_sysbios_knl_Swi_post__E  $Tramp$TT$L$PI$$ti_sysbios_knl_Swi_post__E
   1001b31d     0000bce8     0000b690   rom_sysbios.aem3 : rom_sysbios.obj (.text:ti_sysbios_knl_Swi_or__E)
                             0000b87e   hello_pem3.oem3 (.text:ti_sysbios_knl_Clock_doTick__I)
                             0000bc4e   dpl_cc13x0.aem3 : SwiP_tirtos.oem3 (.text:SwiP_post)
ti_sysbios_BIOS_RtsGateProxy_leave__E  $Tramp$TT$L$PI$$ti_sysbios_BIOS_RtsGateProxy_leave__E
   1001c249     0000bcf0     0000b672   hello_pem3.oem3 (.text:ti_sysbios_BIOS_rtsUnlock__I)
xdc_runtime_Memory_free__E  $Tramp$TT$L$PI$$xdc_runtime_Memory_free__E
   1001c7fd     0000bcf8     0000b5fe   hello_pem3.oem3 (.text:free)
ti_sysbios_knl_Swi_construct  $Tramp$TT$L$PI$$ti_sysbios_knl_Swi_construct
   1001b085     0000bd00     0000b402   rom_sysbios.aem3 : rom_sysbios.obj (.text:ti_sysbios_knl_Swi_construct2__E)
xdc_runtime_Core_deleteObject__I  $Tramp$TT$L$PI$$xdc_runtime_Core_deleteObject__I
   1001c4f5     0000bd08     0000b1ce   hello_pem3.oem3 (.text:ti_uia_loggers_LoggerStopMode_Object__delete__S)
ti_sysbios_BIOS_RtsGateProxy_enter__E  $Tramp$TT$L$PI$$ti_sysbios_BIOS_RtsGateProxy_enter__E
   1001c245     0000bd10     0000b162   hello_pem3.oem3 (.text:ti_sysbios_BIOS_rtsLock__I)
ti_sysbios_knl_Task_restore__E  $Tramp$TT$L$PI$$ti_sysbios_knl_Task_restore__E
   1001ba45     0000bd18     0000b0ee   dpl_cc13x0.aem3 : PowerCC26XX_tirtos.oem3 (.text:PowerCC26XX_schedulerRestore)
ti_sysbios_knl_Clock_getTicks__E  $Tramp$TT$L$PI$$ti_sysbios_knl_Clock_getTicks__E
   1001b6d5     0000bd20     0000add6   rom_sysbios.aem3 : rom_sysbios.obj (.text:ti_sysbios_knl_Clock_getTimeout__E)
ti_sysbios_knl_Semaphore_Params__init__S  $Tramp$TT$L$PI$$ti_sysbios_knl_Semaphore_Params__init__S
   1001c1bd     0000bd28     0000ad26   dpl_cc13x0.aem3 : SemaphoreP_tirtos.oem3 (.text:SemaphoreP_constructBinary)
                             0000b788   EasyLink.obj (.text:ti_sysbios_knl_Semaphore_Params_init)
                             0000b79e   main.obj (.text:ti_sysbios_knl_Semaphore_Params_init)
xdc_runtime_Memory_alloc__E  $Tramp$TT$L$PI$$xdc_runtime_Memory_alloc__E
   1001c485     0000bd30     0000abf6   hello_pem3.oem3 (.text:ti_sysbios_rts_gnu_MemAlloc_alloc)
xdc_runtime_Core_createObject__I  $Tramp$TT$L$PI$$xdc_runtime_Core_createObject__I
   1001c401     0000bd38     0000ab90   hello_pem3.oem3 (.text:ti_uia_loggers_LoggerStopMode_Object__create__S)
ti_sysbios_knl_Task_startup__E  $Tramp$TT$L$PI$$ti_sysbios_knl_Task_startup__E
   1001c305     0000bd40     0000ab70   hello_pem3.oem3 (.text:ti_sysbios_BIOS_startFunc__I)
ti_sysbios_knl_Swi_startup__E  $Tramp$TT$L$PI$$ti_sysbios_knl_Swi_startup__E
   1001c239     0000bd48     0000ab6c   hello_pem3.oem3 (.text:ti_sysbios_BIOS_startFunc__I)
ti_sysbios_hal_Hwi_startup__E  $Tramp$TT$L$PI$$ti_sysbios_hal_Hwi_startup__E
   1001c289     0000bd50     0000ab68   hello_pem3.oem3 (.text:ti_sysbios_BIOS_startFunc__I)
ti_sysbios_family_arm_cc26xx_Timer_startup__E  $Tramp$TT$L$PI$$ti_sysbios_family_arm_cc26xx_Timer_startup__E
   1001b791     0000bd58     0000ab64   hello_pem3.oem3 (.text:ti_sysbios_BIOS_startFunc__I)
xdc_runtime_System_atexit__E  $Tramp$TT$L$PI$$xdc_runtime_System_atexit__E
   1001c67d     0000bd60     0000ab5c   hello_pem3.oem3 (.text:ti_sysbios_BIOS_startFunc__I)
ti_sysbios_BIOS_setThreadType__E  $Tramp$TT$L$PI$$ti_sysbios_BIOS_setThreadType__E
   1001c041     0000bd68     0000ab28   hello_pem3.oem3 (.text:ti_sysbios_BIOS_atExitFunc__I)
                             0000b756   hello_pem3.oem3 (.text:ti_sysbios_BIOS_exitFunc__I)
ti_sysbios_knl_Task_disable__E  $Tramp$TT$L$PI$$ti_sysbios_knl_Task_disable__E
   1001c0f1     0000bd70     0000ab22   hello_pem3.oem3 (.text:ti_sysbios_BIOS_atExitFunc__I)
                             0000b0be   dpl_cc13x0.aem3 : PowerCC26XX_tirtos.oem3 (.text:PowerCC26XX_schedulerDisable)
ti_sysbios_knl_Swi_disable__E  $Tramp$TT$L$PI$$ti_sysbios_knl_Swi_disable__E
   1001c0d1     0000bd78     0000ab1e   hello_pem3.oem3 (.text:ti_sysbios_BIOS_atExitFunc__I)
                             0000bc42   dpl_cc13x0.aem3 : SwiP_tirtos.oem3 (.text:SwiP_disable)
ti_sysbios_family_arm_m3_Hwi_construct  $Tramp$TT$L$PI$$ti_sysbios_family_arm_m3_Hwi_construct
   1001af29     0000bd80     0000a3c2   rom_sysbios.aem3 : rom_sysbios.obj (.text:ti_sysbios_family_arm_m3_Hwi_construct2__E)
ti_sysbios_knl_Swi_Params__init__S  $Tramp$TT$L$PI$$ti_sysbios_knl_Swi_Params__init__S
   1001c1c9     0000bd88     0000a386   dpl_cc13x0.aem3 : SwiP_tirtos.oem3 (.text:SwiP_construct)
ti_sysbios_family_arm_m3_Hwi_Params__init__S  $Tramp$TT$L$PI$$ti_sysbios_family_arm_m3_Hwi_Params__init__S
   1001c139     0000bd90     00009e68   dpl_cc13x0.aem3 : HwiP_tirtos.oem3 (.text:HwiP_construct)
xdc_runtime_System_exit__E  $Tramp$TT$L$PI$$xdc_runtime_System_exit__E
   1001c7cd     0000bd98     00009ca8   boot.aem3 : boot.oem3 (.text)
                             0000b75c   hello_pem3.oem3 (.text:ti_sysbios_BIOS_exitFunc__I)
ti_sysbios_knl_Clock_construct  $Tramp$TT$L$PI$$ti_sysbios_knl_Clock_construct
   1001b575     0000bda0     00009a78   dpl_cc13x0.aem3 : ClockP_tirtos.oem3 (.text:ClockP_construct)
                             00009b54   main.obj (.text:clockSetup)
ti_sysbios_knl_Clock_Params__init__S  $Tramp$TT$L$PI$$ti_sysbios_knl_Clock_Params__init__S
   1001c181     0000bda8     00009a68   dpl_cc13x0.aem3 : ClockP_tirtos.oem3 (.text:ClockP_construct)
                             0000b772   main.obj (.text:ti_sysbios_knl_Clock_Params_init)
ti_sysbios_BIOS_start__E  $Tramp$TT$L$PI$$ti_sysbios_BIOS_start__E
   1001c051     0000bdb0     0000978c   main.obj (.text:main)
ti_sysbios_knl_Task_construct  $Tramp$TT$L$PI$$ti_sysbios_knl_Task_construct
   1001b125     0000bdb8     00009302   main.obj (.text:createRFRXTasks)
                             0000931c   main.obj (.text:createRFRXTasks)
                             0000a4e6   main.obj (.text:createADCTask)
                             0000a51e   main.obj (.text:createAccelTask)
                             0000a556   main.obj (.text:createGPSTask)
                             0000a58e   main.obj (.text:createGyroTask)
                             0000a5c6   main.obj (.text:createMagTask)
                             0000a5fe   main.obj (.text:createPWMTask)
                             0000a636   main.obj (.text:createRFTXTasks)
ti_sysbios_heaps_HeapMem_restore__E  $Tramp$TT$L$PI$$ti_sysbios_heaps_HeapMem_restore__E
   1001c101     0000bdc0     00008eb0   rom_sysbios.aem3 : rom_sysbios.obj (.text:ti_sysbios_heaps_HeapMem_initPrimary__I)
ti_sysbios_heaps_HeapMem_Object__get__S  $Tramp$TT$L$PI$$ti_sysbios_heaps_HeapMem_Object__get__S
   1001b86d     0000bdc8     00008e78   rom_sysbios.aem3 : rom_sysbios.obj (.text:ti_sysbios_heaps_HeapMem_initPrimary__I)
xdc_runtime_Gate_leaveSystem__E  $Tramp$TT$L$PI$$xdc_runtime_Gate_leaveSystem__E
   1001c875     0000bdd0     00008776   ti.uia.runtime.aem3 : QueueDescriptor.oem3 (.text:ti_uia_runtime_QueueDescriptor_addToList__E)
                             00009d78   rom_sysbios.aem3 : rom_sysbios.obj (.text:xdc_runtime_SysMin_flush__E)
                             0000a754                    : rom_sysbios.obj (.text:xdc_runtime_SysMin_putch__E)
xdc_runtime_Gate_enterSystem__E  $Tramp$TT$L$PI$$xdc_runtime_Gate_enterSystem__E
   1001c881     0000bdd8     00008718   ti.uia.runtime.aem3 : QueueDescriptor.oem3 (.text:ti_uia_runtime_QueueDescriptor_addToList__E)
                             00009d4a   rom_sysbios.aem3 : rom_sysbios.obj (.text:xdc_runtime_SysMin_flush__E)
                             0000a736                    : rom_sysbios.obj (.text:xdc_runtime_SysMin_putch__E)
xdc_runtime_Assert_raise__I  $Tramp$TT$L$PI$$xdc_runtime_Assert_raise__I
   1001c5a5     0000bde0     00007dca   ti.uia.loggers.aem3 : LoggerStopMode.oem3 (.text:ti_uia_loggers_LoggerStopMode_initQueueDescriptor__E)
ti_sysbios_knl_Clock_scheduleNextTick__E  $Tramp$TT$L$PI$$ti_sysbios_knl_Clock_scheduleNextTick__E
   1001beb9     0000bde8     000079fe   rom_sysbios.aem3 : rom_sysbios.obj (.text:ti_sysbios_knl_Clock_workFuncDynamic__E)
ti_sysbios_knl_Clock_walkQueueDynamic__E  $Tramp$TT$L$PI$$ti_sysbios_knl_Clock_walkQueueDynamic__E
   1001a809     0000bdf0     000079c6   rom_sysbios.aem3 : rom_sysbios.obj (.text:ti_sysbios_knl_Clock_workFuncDynamic__E)
                             000079e2                    : rom_sysbios.obj (.text:ti_sysbios_knl_Clock_workFuncDynamic__E)
ti_sysbios_knl_Clock_TimerProxy_getCurrentTick__E  $Tramp$TT$L$PI$$ti_sysbios_knl_Clock_TimerProxy_getCurrentTick__E
   1001c091     0000bdf8     00007994   rom_sysbios.aem3 : rom_sysbios.obj (.text:ti_sysbios_knl_Clock_workFuncDynamic__E)
                             0000ad7e                    : rom_sysbios.obj (.text:ti_sysbios_knl_Clock_getTicksUntilInterrupt__E)
ti_sysbios_knl_Clock_start__E  $Tramp$TT$L$PI$$ti_sysbios_knl_Clock_start__E
   1001bfdf     0000be00     000068b0   dpl_cc13x0.aem3 : PowerCC26XX_tirtos.oem3 (.text:PowerCC26XX_standbyPolicy)
                             0000b1ae   rom_sysbios.aem3 : rom_sysbios.obj (.text:ti_sysbios_knl_Clock_stop__E)
                             0000bc06   dpl_cc13x0.aem3 : ClockP_tirtos.oem3 (.text:ClockP_start)
ti_sysbios_knl_Clock_setTimeout__E  $Tramp$TT$L$PI$$ti_sysbios_knl_Clock_setTimeout__E
   1001c2bd     0000be08     000068aa   dpl_cc13x0.aem3 : PowerCC26XX_tirtos.oem3 (.text:PowerCC26XX_standbyPolicy)
                             0000bc02                   : ClockP_tirtos.oem3 (.text:ClockP_setTimeout)
ti_sysbios_knl_Semaphore_construct  $Tramp$TT$L$PI$$ti_sysbios_knl_Semaphore_construct
   1001b705     0000be10     00005c1c   main.obj (.text:semaphoreSetup)
                             00005c30   main.obj (.text:semaphoreSetup)
                             00005c44   main.obj (.text:semaphoreSetup)
                             00005c58   main.obj (.text:semaphoreSetup)
                             00005c6c   main.obj (.text:semaphoreSetup)
                             00005c80   main.obj (.text:semaphoreSetup)
                             00005c94   main.obj (.text:semaphoreSetup)
                             00005ca8   main.obj (.text:semaphoreSetup)
                             0000ad36   dpl_cc13x0.aem3 : SemaphoreP_tirtos.oem3 (.text:SemaphoreP_constructBinary)
ti_sysbios_knl_Task_sleep__E  $Tramp$TT$L$PI$$ti_sysbios_knl_Task_sleep__E
   1001a9d9     0000be18     00005a92   main.obj (.text:adcTaskFunc)
                             00007298   main.obj (.text:pwmTaskFunc)
xdc_runtime_Timestamp_get64__E  $Tramp$TT$L$PI$$xdc_runtime_Timestamp_get64__E
   1001b9cd     0000be20     00004590   hello_pem3.oem3 (.text:ti_uia_loggers_LoggerStopMode_writeMemoryRange__E)
                             00005518   hello_pem3.oem3 (.text:ti_uia_loggers_LoggerStopMode_write8__E)
                             00005d2c   hello_pem3.oem3 (.text:ti_uia_loggers_LoggerStopMode_write4__E)
                             00005ffc   hello_pem3.oem3 (.text:ti_uia_loggers_LoggerStopMode_write1__E)
                             000060e4   hello_pem3.oem3 (.text:ti_uia_loggers_LoggerStopMode_write2__E)
                             000066ea   hello_pem3.oem3 (.text:ti_uia_loggers_LoggerStopMode_write0__E)
ti_sysbios_family_arm_m3_Hwi_disableFxn__E  $Tramp$TT$L$PI$$ti_sysbios_family_arm_m3_Hwi_disableFxn__E
   1001c145     0000be28     00004542   hello_pem3.oem3 (.text:ti_uia_loggers_LoggerStopMode_writeMemoryRange__E)
                             000054f4   hello_pem3.oem3 (.text:ti_uia_loggers_LoggerStopMode_write8__E)
                             00005d08   hello_pem3.oem3 (.text:ti_uia_loggers_LoggerStopMode_write4__E)
                             00005fd8   hello_pem3.oem3 (.text:ti_uia_loggers_LoggerStopMode_write1__E)
                             000060c0   hello_pem3.oem3 (.text:ti_uia_loggers_LoggerStopMode_write2__E)
                             000066c6   hello_pem3.oem3 (.text:ti_uia_loggers_LoggerStopMode_write0__E)
                             0000b7be   ti.uia.loggers.aem3 : LoggerStopMode.oem3 (.text:ti_uia_loggers_LoggerStopMode_disable__E)
                             0000b7d4                       : LoggerStopMode.oem3 (.text:ti_uia_loggers_LoggerStopMode_enable__E)
                             0000bc12   dpl_cc13x0.aem3 : HwiP_tirtos.oem3 (.text:HwiP_disable)
ti_sysbios_knl_Swi_restore__E  $Tramp$TT$L$PI$$ti_sysbios_knl_Swi_restore__E
   1001b5dd     0000be30     00002962   drivers_cc13x0.aem3 : PowerCC26XX.oem3 (.text:Power_sleep)
                             00007ed0   rf_multiMode_cc13x0.aem3 : RFCC26XX_multiMode.oem3 (.text:RF_pendCmd)
                             00007ef8                            : RFCC26XX_multiMode.oem3 (.text:RF_pendCmd)
                             00007f1a                            : RFCC26XX_multiMode.oem3 (.text:RF_pendCmd)
ti_sysbios_knl_Semaphore_create  $Tramp$TT$L$PI$$ti_sysbios_knl_Semaphore_create
   1001b5a9     0000be38     00001c66   EasyLink.obj (.text:EasyLink_init)
ti_sysbios_knl_Semaphore_post__E  $Tramp$TT$L$PI$$ti_sysbios_knl_Semaphore_post__E
   1001ac41     0000be40     00001b8a   EasyLink.obj (.text:EasyLink_init)
                             00001c7c   EasyLink.obj (.text:EasyLink_init)
                             00001c8c   EasyLink.obj (.text:EasyLink_init)
                             00003058   EasyLink.obj (.text:EasyLink_setRfPwr)
                             00003102   EasyLink.obj (.text:EasyLink_setRfPwr)
                             0000360e   EasyLink.obj (.text:rxDoneCallback)
                             000044b8   EasyLink.obj (.text:EasyLink_transmit)
                             00004edc   main.obj (.text:rxDoneCb)
                             00004ee6   main.obj (.text:rxDoneCb)
                             00004f14   main.obj (.text:rxDoneCb)
                             00006252   main.obj (.text:txDataTaskFunc)
                             0000625a   main.obj (.text:txDataTaskFunc)
                             000064e0   EasyLink.obj (.text:EasyLink_enableRxAddrFilter)
                             00006bbc   main.obj (.text:rxBeaconFunc)
                             00006bfe   main.obj (.text:rxBeaconFunc)
                             00006c24   main.obj (.text:rxBeaconFunc)
                             00006c2e   main.obj (.text:rxBeaconFunc)
                             000082cc   main.obj (.text:magTaskFunc)
                             00008462   main.obj (.text:pinCallback)
                             0000846c   main.obj (.text:pinCallback)
                             00008476   main.obj (.text:pinCallback)
                             0000999c   main.obj (.text:gyroTaskFunc)
                             0000a0f8   main.obj (.text:accelTaskFunc)
                             0000b128   main.obj (.text:Serial_RxDataCallback)
                             0000b32a   main.obj (.text:clk0Fxn)
                             0000bc3a   dpl_cc13x0.aem3 : SemaphoreP_tirtos.oem3 (.text:SemaphoreP_post)
ti_sysbios_knl_Semaphore_pend__E  $Tramp$TT$L$PI$$ti_sysbios_knl_Semaphore_pend__E
   1001a001     0000be48     00001952   EasyLink.obj (.text:EasyLink_init)
                             00002fce   EasyLink.obj (.text:EasyLink_setRfPwr)
                             0000391e   EasyLink.obj (.text:EasyLink_receiveAsync)
                             000043d8   EasyLink.obj (.text:EasyLink_transmit)
                             00005ba4   main.obj (.text:gpsFunc)
                             000061c4   main.obj (.text:txDataTaskFunc)
                             000061d0   main.obj (.text:txDataTaskFunc)
                             0000645c   EasyLink.obj (.text:EasyLink_enableRxAddrFilter)
                             00006b96   main.obj (.text:rxBeaconFunc)
                             000082ae   main.obj (.text:magTaskFunc)
                             000082ba   main.obj (.text:magTaskFunc)
                             00009976   main.obj (.text:gyroTaskFunc)
                             00009982   main.obj (.text:gyroTaskFunc)
                             0000a0da   main.obj (.text:accelTaskFunc)
                             0000a0e6   main.obj (.text:accelTaskFunc)
                             0000af4e   main.obj (.text:rxRestartFunc)
                             0000b89c   dpl_cc13x0.aem3 : SemaphoreP_tirtos.oem3 (.text:SemaphoreP_pend)
ti_sysbios_family_arm_m3_Hwi_restoreFxn__E  $Tramp$TT$L$PI$$ti_sysbios_family_arm_m3_Hwi_restoreFxn__E
   1001c215     0000be50     000015ec   rf_multiMode_cc13x0.aem3 : RFCC26XX_multiMode.oem3 (.text:fsmActiveState)
                             000017ac                            : RFCC26XX_multiMode.oem3 (.text:fsmActiveState)
                             00001886                            : RFCC26XX_multiMode.oem3 (.text:fsmActiveState)
                             000018f0                            : RFCC26XX_multiMode.oem3 (.text:fsmActiveState)
                             00001912                            : RFCC26XX_multiMode.oem3 (.text:fsmActiveState)
                             000029fe                            : RFCC26XX_multiMode.oem3 (.text:RF_open)
                             00002afc                            : RFCC26XX_multiMode.oem3 (.text:RF_open)
                             00003a7e   drivers_cc13x0.aem3 : UARTCC26XX.oem3 (.text:UARTCC26XX_open)
                             00003a8a                       : UARTCC26XX.oem3 (.text:UARTCC26XX_open)
                             00003b14                       : UARTCC26XX.oem3 (.text:UARTCC26XX_open)
                             00003c7a   rf_multiMode_cc13x0.aem3 : RFCC26XX_multiMode.oem3 (.text:RF_postCmd)
                             00003ca2                            : RFCC26XX_multiMode.oem3 (.text:RF_postCmd)
                             00003d0c                            : RFCC26XX_multiMode.oem3 (.text:RF_postCmd)
                             00003d40   drivers_cc13x0.aem3 : I2CCC26XX.oem3 (.text:I2CCC26XX_open)
                             00003d50                       : I2CCC26XX.oem3 (.text:I2CCC26XX_open)
                             00003dd0                       : I2CCC26XX.oem3 (.text:I2CCC26XX_open)
                             00003f3a   rf_multiMode_cc13x0.aem3 : RFCC26XX_multiMode.oem3 (.text:radioOpDoneCb)
                             00004018                            : RFCC26XX_multiMode.oem3 (.text:abortCmd)
                             000040ac                            : RFCC26XX_multiMode.oem3 (.text:abortCmd)
                             00004100                            : RFCC26XX_multiMode.oem3 (.text:abortCmd)
                             00004106                            : RFCC26XX_multiMode.oem3 (.text:abortCmd)
                             00004616   hello_pem3.oem3 (.text:ti_uia_loggers_LoggerStopMode_writeMemoryRange__E)
                             00004ff4   rf_multiMode_cc13x0.aem3 : RFCC26XX_multiMode.oem3 (.text:RF_close)
                             00005036                            : RFCC26XX_multiMode.oem3 (.text:RF_close)
                             00005070                            : RFCC26XX_multiMode.oem3 (.text:RF_close)
                             00005134   drivers_cc13x0.aem3 : UARTCC26XX.oem3 (.text:UARTCC26XX_read)
                             00005172                       : UARTCC26XX.oem3 (.text:UARTCC26XX_read)
                             000055e4   hello_pem3.oem3 (.text:ti_uia_loggers_LoggerStopMode_write8__E)
                             0000593e   drivers_cc13x0.aem3 : UARTCC26XX.oem3 (.text:UARTCC26XX_write)
                             0000595a                       : UARTCC26XX.oem3 (.text:UARTCC26XX_write)
                             000059f8                       : UARTCC26XX.oem3 (.text:UARTCC26XX_write)
                             00005de0   hello_pem3.oem3 (.text:ti_uia_loggers_LoggerStopMode_write4__E)
                             00005ef8   drivers_cc13x0.aem3 : PWMTimerCC26XX.oem3 (.text:PWMTimerCC26XX_open)
                             00005f04                       : PWMTimerCC26XX.oem3 (.text:PWMTimerCC26XX_open)
                             000060a2   hello_pem3.oem3 (.text:ti_uia_loggers_LoggerStopMode_write1__E)
                             0000618c   hello_pem3.oem3 (.text:ti_uia_loggers_LoggerStopMode_write2__E)
                             00006408   drivers_cc13x0.aem3 : PINCC26XX.oem3 (.text:PINCC26XX_setIoCfg)
                             00006784   hello_pem3.oem3 (.text:ti_uia_loggers_LoggerStopMode_write0__E)
                             00006c7c   drivers_cc13x0.aem3 : I2CCC26XX.oem3 (.text:I2CCC26XX_transfer)
                             00006c8e                       : I2CCC26XX.oem3 (.text:I2CCC26XX_transfer)
                             00006e18                       : GPTimerCC26XX.oem3 (.text:GPTimerCC26XX_open)
                             00006e36                       : GPTimerCC26XX.oem3 (.text:GPTimerCC26XX_open)
                             00006fe2                       : PowerCC26XX.oem3 (.text:Power_releaseDependency)
                             00007154                       : PowerCC26XX.oem3 (.text:Power_setDependency)
                             00007494                       : GPTimerCC26XX.oem3 (.text:GPTimerCC26XX_close)
                             000075a4   rf_multiMode_cc13x0.aem3 : RFCC26XX_multiMode.oem3 (.text:RF_issueRadioFreeCb)
                             000075c2                            : RFCC26XX_multiMode.oem3 (.text:RF_issueRadioFreeCb)
                             000075d4                            : RFCC26XX_multiMode.oem3 (.text:RF_issueRadioFreeCb)
                             000075fc   drivers_cc13x0.aem3 : WatchdogCC26XX.oem3 (.text:WatchdogCC26XX_open)
                             00007660                       : WatchdogCC26XX.oem3 (.text:WatchdogCC26XX_open)
                             00007806   rf_multiMode_cc13x0.aem3 : RFCC26XX_multiMode.oem3 (.text:swiFxnHw)
                             00007832                            : RFCC26XX_multiMode.oem3 (.text:swiFxnHw)
                             00007ca2   drivers_cc13x0.aem3 : UARTCC26XX.oem3 (.text:writeFinishedDoCallback)
                             00007d7a                       : I2CCC26XX.oem3 (.text:I2CCC26XX_cancel)
                             00007faa                       : UARTCC26XX.oem3 (.text:UARTCC26XX_close)
                             00007fda                       : UARTCC26XX.oem3 (.text:UARTCC26XX_writeCancel)
                             00007fe6                       : UARTCC26XX.oem3 (.text:UARTCC26XX_writeCancel)
                             0000802c                       : UARTCC26XX.oem3 (.text:UARTCC26XX_writeCancel)
                             00008068                       : ADCCC26XX.oem3 (.text:ADCCC26XX_open)
                             000080a6                       : ADCCC26XX.oem3 (.text:ADCCC26XX_open)
                             000081cc                       : PowerCC26XX.oem3 (.text:switchXOSCHFclockFunc)
                             000087ae                       : PowerCC26XX_calibrateRCOSC.oem3 (.text:PowerCC26XX_initiateCalibration)
                             0000884c                       : I2CCC26XX.oem3 (.text:I2CCC26XX_close)
                             00008a98                       : UARTCC26XX.oem3 (.text:UARTCC26XX_readCancel)
                             00008aa4                       : UARTCC26XX.oem3 (.text:UARTCC26XX_readCancel)
                             00008aae                       : UARTCC26XX.oem3 (.text:UARTCC26XX_readCancel)
                             00008fd0                       : UARTCC26XX.oem3 (.text:UARTCC26XX_control)
                             0000938a   rf_multiMode_cc13x0.aem3 : RFCC26XX_multiMode.oem3 (.text:ratChanFree)
                             00009428   drivers_cc13x0.aem3 : GPTimerCC26XX.oem3 (.text:GPTimerCC26XX_stop)
                             00009436                       : GPTimerCC26XX.oem3 (.text:GPTimerCC26XX_stop)
                             00009564   rf_multiMode_cc13x0.aem3 : RFCC26XX_multiMode.oem3 (.text:RF_getCurrentTime)
                             0000956c                            : RFCC26XX_multiMode.oem3 (.text:RF_getCurrentTime)
                             0000986c   drivers_cc13x0.aem3 : GPTimerCC26XX.oem3 (.text:GPTimerCC26XX_start)
                             00009878                       : GPTimerCC26XX.oem3 (.text:GPTimerCC26XX_start)
                             00009aca                       : PINCC26XX.oem3 (.text:PIN_setOutputEnable)
                             00009bbe   rf_multiMode_cc13x0.aem3 : RFCC26XX_multiMode.oem3 (.text:RF_releasePowerConstraint)
                             00009bd6                            : RFCC26XX_multiMode.oem3 (.text:RF_releasePowerConstraint)
                             00009bdc                            : RFCC26XX_multiMode.oem3 (.text:RF_releasePowerConstraint)
                             00009c06   drivers_cc13x0.aem3 : RingBuf.oem3 (.text:RingBuf_put)
                             00009c30                       : RingBuf.oem3 (.text:RingBuf_put)
                             00009dfa                       : ADC.oem3 (.text:ADC_init)
                             00009eba                       : I2C.oem3 (.text:I2C_init)
                             00009f7a                       : PWM.oem3 (.text:PWM_init)
                             00009ffa                       : UART.oem3 (.text:UART_init)
                             0000a07a                       : Watchdog.oem3 (.text:Watchdog_init)
                             0000a178                       : RingBuf.oem3 (.text:RingBuf_get)
                             0000a180                       : RingBuf.oem3 (.text:RingBuf_get)
                             0000a1f0                       : ADCCC26XX.oem3 (.text:ADCCC26XX_close)
                             0000a2e0                       : PowerCC26XX.oem3 (.text:PowerCC26XX_isStableXOSC_HF)
                             0000a322                       : PowerCC26XX.oem3 (.text:PowerCC26XX_switchXOSC_HF)
                             0000a448   rf_multiMode_cc13x0.aem3 : RFCC26XX_multiMode.oem3 (.text:Q_end)
                             0000a4aa   drivers_cc13x0.aem3 : UARTCC26XX.oem3 (.text:UARTCC26XX_swiIntFxn)
                             0000a85a                       : PowerCC26XX.oem3 (.text:Power_releaseConstraint)
                             0000a894   rf_multiMode_cc13x0.aem3 : RFCC26XX_multiMode.oem3 (.text:Q_push)
                             0000aa20   drivers_cc13x0.aem3 : PowerCC26XX.oem3 (.text:Power_setConstraint)
                             0000aa78                       : WatchdogCC26XX.oem3 (.text:WatchdogCC26XX_setReload)
                             0000ad08                       : PWMTimerCC26XX.oem3 (.text:PWMTimerCC26XX_close)
                             0000b010                       : List.oem3 (.text:List_put)
                             0000b110                       : PowerCC26XX.oem3 (.text:Power_unregisterNotify)
                             0000b310   rf_multiMode_cc13x0.aem3 : RFCC26XX_multiMode.oem3 (.text:RF_setPowerConstraint)
                             0000b730                            : RFCC26XX_multiMode.oem3 (.text:Q_pop)
                             0000b7c8   ti.uia.loggers.aem3 : LoggerStopMode.oem3 (.text:ti_uia_loggers_LoggerStopMode_disable__E)
                             0000b7de                       : LoggerStopMode.oem3 (.text:ti_uia_loggers_LoggerStopMode_enable__E)

[58 trampolines]
[253 trampoline calls]


GLOBAL SYMBOLS: SORTED ALPHABETICALLY BY Name 

address   name                                                                      
-------   ----                                                                      
00010800  ADCBuf_count                                                              
0000a1c9  ADCCC26XX_close                                                           
0000bbbd  ADCCC26XX_control                                                         
00006939  ADCCC26XX_convert                                                         
00009d8d  ADCCC26XX_convertToMicroVolts                                             
00010704  ADCCC26XX_fxnTable                                                        
0000bb5d  ADCCC26XX_init                                                            
0000804d  ADCCC26XX_open                                                            
0000bae5  ADC_Params_init                                                           
000101fc  ADC_config                                                                
0000baef  ADC_convert                                                               
0000baf9  ADC_convertToMicroVolts                                                   
00010801  ADC_count                                                                 
0001080c  ADC_defaultParams                                                         
00009dcd  ADC_init                                                                  
00009e0d  ADC_open                                                                  
20004730  AXN                                                                       
20004734  AYN                                                                       
20004738  AZN                                                                       
00010564  BoardGpioInitTable                                                        
000096a5  C$$EXIT                                                                   
00008c33  C$$IO$$                                                                   
0000b46d  CC1310_LAUNCHXL_initGeneral                                               
0000bbc3  ClockP_Params_init                                                        
00009a4d  ClockP_construct                                                          
0000bbf7  ClockP_destruct                                                           
0000bbfb  ClockP_getCpuFreq                                                         
UNDEFED   ClockP_getSystemTicks                                                     
0000bbff  ClockP_getTimeout                                                         
0000b8bf  ClockP_isActive                                                           
0000bc03  ClockP_setTimeout                                                         
0000bc07  ClockP_start                                                              
0000bc0b  ClockP_stop                                                               
200027a4  ClockP_tickPeriod                                                         
200030d8  Connections                                                               
00010802  Display_count                                                             
0000ad99  Display_doPrintf                                                          
00007a19  EasyLink_abort                                                            
00006435  EasyLink_enableRxAddrFilter                                               
0000193d  EasyLink_init                                                             
000038f9  EasyLink_receiveAsync                                                     
00002f95  EasyLink_setRfPwr                                                         
000043b5  EasyLink_transmit                                                         
0000ba49  GPTimerCC26XX_Params_init                                                 
00007405  GPTimerCC26XX_close                                                       
00010280  GPTimerCC26XX_config                                                      
0000a96d  GPTimerCC26XX_configureDebugStall                                         
00006dc9  GPTimerCC26XX_open                                                        
0000bb65  GPTimerCC26XX_setLoadValue                                                
0000bb6d  GPTimerCC26XX_setMatchValue                                               
00009839  GPTimerCC26XX_start                                                       
000093f5  GPTimerCC26XX_stop                                                        
00001000  HEAPSIZE                                                                  
00001fdb  HOSTclock                                                                 
00001fa3  HOSTclose                                                                 
00001f65  HOSTgetenv                                                                
00001f09  HOSTlseek                                                                 
00001eb7  HOSTopen                                                                  
00001e6b  HOSTread                                                                  
00001e0d  HOSTrename                                                                
00001dd3  HOSTtime                                                                  
00001d85  HOSTtime64                                                                
00001d4d  HOSTunlink                                                                
00001d01  HOSTwrite                                                                 
0000b8cf  HwiP_Params_init                                                          
00009e4d  HwiP_construct                                                            
0000bc0f  HwiP_destruct                                                             
0000bc13  HwiP_disable                                                              
0000bc17  HwiP_disableInterrupt                                                     
0000bc1b  HwiP_enableInterrupt                                                      
0000bc1f  HwiP_plug                                                                 
0000bc23  HwiP_post                                                                 
UNDEFED   HwiP_restore                                                              
0000bc27  HwiP_setFunc                                                              
00007cfd  I2CCC26XX_cancel                                                          
000087f5  I2CCC26XX_close                                                           
0000bbc9  I2CCC26XX_control                                                         
0001071c  I2CCC26XX_fxnTable                                                        
0000bb03  I2CCC26XX_init                                                            
00003d25  I2CCC26XX_open                                                            
00006c49  I2CCC26XX_transfer                                                        
0000b8e1  I2C_Params_init                                                           
000107c4  I2C_config                                                                
00010803  I2C_count                                                                 
00010794  I2C_defaultParams                                                         
00009e8d  I2C_init                                                                  
00009ecd  I2C_open                                                                  
0000bb0d  I2C_transfer                                                              
0000885d  I2CreadByte                                                               
00006e85  I2CreadBytes                                                              
000088c5  I2CwriteByte                                                              
000083d9  LSM9DS1begin                                                              
00002db1  LSM9DS1init                                                               
0000ba55  List_empty                                                                
0000bc2b  List_head                                                                 
0000bc2f  List_next                                                                 
0000aff5  List_put                                                                  
0000b6f5  List_remove                                                               
0000aded  NOROM_AONBatMonTemperatureGetDegC                                         
0000b7e9  NOROM_AONRTCCurrent64BitValueGet                                          
0000b485  NOROM_AONRTCCurrentCompareValueGet                                        
0000b017  NOROM_AUXADCAdjustValueForGainAndOffset                                   
00007aad  NOROM_AUXADCDisable                                                       
0000a799  NOROM_AUXADCDisableInputScaling                                           
00006d09  NOROM_AUXADCEnableSync                                                    
0000b8f1  NOROM_AUXADCFlushFifo                                                     
0000b259  NOROM_AUXADCGetAdjustmentGain                                             
0000b49d  NOROM_AUXADCGetAdjustmentOffset                                           
0000b901  NOROM_AUXADCReadFifo                                                      
0000b7fd  NOROM_AUXADCValueToMicrovolts                                             
0000ba61  NOROM_CPUcpsid                                                            
0000ba6d  NOROM_CPUcpsie                                                            
0000bbcf  NOROM_CPUdelay                                                            
0000b275  NOROM_ChipInfo_GetChipFamily                                              
0000a99d  NOROM_ChipInfo_GetChipType                                                
0000a205  NOROM_ChipInfo_GetHwRevision                                              
0000b4b5  NOROM_ChipInfo_GetPackageType                                             
0000ac0d  NOROM_DDI32RegWrite                                                       
0000ac39  NOROM_OSCClockSourceGet                                                   
00008f2d  NOROM_OSCClockSourceSet                                                   
00008cd5  NOROM_OSCHF_AttemptToSwitchToXosc                                         
0000a7cd  NOROM_OSCHF_SwitchToRcOscTurnOffXosc                                      
0000b4cd  NOROM_OSCHF_TurnOnXosc                                                    
0000a241  NOROM_OSC_HPOSCRelativeFrequencyOffsetGet                                 
0000ba79  NOROM_OSC_HPOSCRelativeFrequencyOffsetToRFCoreFormatConvert               
0000b05d  NOROM_RFCAdi3VcoLdoVoltageMode                                            
0000ac65  NOROM_RFCCPEPatchReset                                                    
0000b4e5  NOROM_RFCCpeIntGetAndClear                                                
0000ae8d  NOROM_RFCDoorbellSendTo                                                   
0000627d  NOROM_RFCOverrideUpdate                                                   
00006795  NOROM_RFCRfTrimRead                                                       
0000b911  NOROM_RFCRfTrimSet                                                        
0000a27d  NOROM_RFCSynthPowerDown                                                   
000072bd  NOROM_SetupAfterColdResetWakeupFromShutDownCfg1                           
00005df1  NOROM_SetupAfterColdResetWakeupFromShutDownCfg2                           
0000475d  NOROM_SetupAfterColdResetWakeupFromShutDownCfg3                           
0000b4fd  NOROM_SetupGetTrimForAdcShModeEn                                          
0000b515  NOROM_SetupGetTrimForAdcShVbufEn                                          
0000892d  NOROM_SetupGetTrimForAmpcompCtrl                                          
0000b52d  NOROM_SetupGetTrimForAmpcompTh1                                           
0000b291  NOROM_SetupGetTrimForAmpcompTh2                                           
00008995  NOROM_SetupGetTrimForAnabypassValue1                                      
0000b545  NOROM_SetupGetTrimForDblrLoopFilterResetVoltage                           
0000ac91  NOROM_SetupGetTrimForRadcExtCfg                                           
0000b55d  NOROM_SetupGetTrimForRcOscLfIBiasTrim                                     
0000b2ad  NOROM_SetupGetTrimForRcOscLfRtuneCtuneTrim                                
0000b07d  NOROM_SetupGetTrimForXoscHfCtl                                            
0000b921  NOROM_SetupGetTrimForXoscHfFastStart                                      
0000b931  NOROM_SetupGetTrimForXoscHfIbiastherm                                     
0000b575  NOROM_SetupGetTrimForXoscLfRegulatorAndCmirrwrRatio                       
0000a9cd  NOROM_SetupSetAonRtcSubSecInc                                             
000096f9  NOROM_SetupSetCacheModeAccordingToCcfgSetting                             
000085b9  NOROM_SetupSetVddrLevel                                                   
0000716d  NOROM_SetupTrimDevice                                                     
000091cd  NOROM_SysCtrlAdjustRechargeAfterPowerDown                                 
00002579  NOROM_SysCtrlSetRechargeBeforePowerDown                                   
000089fd  NOROM_SysCtrl_DCDC_VoltageConditionalControl                              
0000b70b  NOROM_ThisLibraryIsFor_CC13x0_HwRev20AndLater_HaltIfViolated              
0000ba11  NOROM_VIMSModeGet                                                         
00010804  NVS_count                                                                 
0000aeb1  PINCC26XX_getPinCount                                                     
00010814  PINCC26XX_hwAttrs                                                         
0000acbd  PINCC26XX_setMux                                                          
2000246c  PIN_HandleTable                                                           
200023d8  PIN_NumPins                                                               
00008d39  PIN_add                                                                   
0000b21d  PIN_close                                                                 
0000b811  PIN_getOutputValue                                                        
00003465  PIN_init                                                                  
00007851  PIN_open                                                                  
0000ba85  PIN_registerIntCb                                                         
000094a5  PIN_remove                                                                
0000a801  PIN_setConfig                                                             
00009a95  PIN_setOutputEnable                                                       
0000a3e5  PIN_setOutputValue                                                        
0000ace9  PWMTimerCC26XX_close                                                      
0000b451  PWMTimerCC26XX_control                                                    
00010654  PWMTimerCC26XX_fxnTable                                                   
000056ff  PWMTimerCC26XX_init                                                       
00005ee1  PWMTimerCC26XX_open                                                       
00009f0d  PWMTimerCC26XX_setDuty                                                    
000081e1  PWMTimerCC26XX_setPeriod                                                  
0000aed5  PWMTimerCC26XX_start                                                      
0000b09d  PWMTimerCC26XX_stop                                                       
0000b825  PWM_Params_init                                                           
000102e0  PWM_config                                                                
00010805  PWM_count                                                                 
00010734  PWM_defaultParams                                                         
00009f4d  PWM_init                                                                  
00009f8d  PWM_open                                                                  
0000bb17  PWM_setDuty                                                               
0000bb21  PWM_start                                                                 
00009229  PowerCC26XX_RCOSC_clockFunc                                               
00002025  PowerCC26XX_auxISR                                                        
00009285  PowerCC26XX_calibrate                                                     
000107a4  PowerCC26XX_config                                                        
000032d5  PowerCC26XX_doCalibrate                                                   
00008789  PowerCC26XX_initiateCalibration                                           
0000a2b9  PowerCC26XX_isStableXOSC_HF                                               
200041d0  PowerCC26XX_module                                                        
0000b0bd  PowerCC26XX_schedulerDisable                                              
0000b0dd  PowerCC26XX_schedulerRestore                                              
00006869  PowerCC26XX_standbyPolicy                                                 
20003150  PowerCC26XX_swiKey                                                        
0000a2f5  PowerCC26XX_switchXOSC_HF                                                 
2000314c  PowerCC26XX_taskKey                                                       
0000ba91  Power_getConstraintMask                                                   
0000ba9d  Power_getDependencyCount                                                  
0000b23b  Power_getTransitionLatency                                                
0000b58d  Power_idleFunc                                                            
0000488d  Power_init                                                                
0000ae15  Power_registerNotify                                                      
0000a835  Power_releaseConstraint                                                   
00006f41  Power_releaseDependency                                                   
0000a9fd  Power_setConstraint                                                       
000070b9  Power_setDependency                                                       
000027a1  Power_sleep                                                               
0000b0fd  Power_unregisterNotify                                                    
00010830  RFCC26XX_hwAttrs                                                          
0000b839  RF_Params_init                                                            
00003fcd  RF_cancelCmd                                                              
00004f79  RF_close                                                                  
20004938  RF_cmdFs                                                                  
20004950  RF_cmdFs_preDef                                                           
200047cc  RF_cmdPropRadioDivSetup                                                   
200047f4  RF_cmdPropRadioDivSetup_fsk                                               
2000481c  RF_cmdPropRadioDivSetup_lrm                                               
20004844  RF_cmdPropRadioDivSetup_ook                                               
2000486c  RF_cmdPropRadioDivSetup_sl_lr                                             
200046dc  RF_cmdPropRxAdv_preDef                                                    
20004968  RF_cmdPropTx                                                              
20004980  RF_cmdPropTx_preDef                                                       
20004998  RF_cmdRadioSetup_hsm                                                      
20004894  RF_cmdRxHS                                                                
20004a10  RF_cmdTxHS                                                                
00009555  RF_getCurrentTime                                                         
000029bd  RF_open                                                                   
20004698  RF_pCmdFs_preDef                                                          
20004678  RF_pCmdPropRadioDivSetup_fsk                                              
2000467c  RF_pCmdPropRadioDivSetup_lrm                                              
20004680  RF_pCmdPropRadioDivSetup_ook                                              
20004688  RF_pCmdPropRadioDivSetup_sl_lr                                            
2000468c  RF_pCmdPropRadioSetup_2_4G_fsk                                            
200046a0  RF_pCmdPropRxAdv_preDef                                                   
2000469c  RF_pCmdPropTx_preDef                                                      
20004684  RF_pCmdRadioSetup_hsm                                                     
20004694  RF_pCmdRxHS                                                               
20004690  RF_pCmdTxHS                                                               
20004674  RF_pProp_2_4G_fsk                                                         
20004660  RF_pProp_fsk                                                              
2000466c  RF_pProp_hsm                                                              
20004664  RF_pProp_lrm                                                              
20004668  RF_pProp_ook                                                              
20004670  RF_pProp_sl_lr                                                            
00007ea9  RF_pendCmd                                                                
00003bcd  RF_postCmd                                                                
20004a44  RF_prop                                                                   
20004a54  RF_prop_fsk                                                               
20004a64  RF_prop_hsm                                                               
20004a74  RF_prop_lrm                                                               
20004a84  RF_prop_ook                                                               
20004a94  RF_prop_sl_lr                                                             
00009bb1  RF_releasePowerConstraint                                                 
0000a331  RF_runCmd                                                                 
0000b301  RF_setPowerConstraint                                                     
00009c7d  ResetISR                                                                  
0000b889  RingBuf_construct                                                         
0000a14d  RingBuf_get                                                               
00009bf5  RingBuf_put                                                               
UNDEFED   SHT$$INIT_ARRAY$$Base                                                     
UNDEFED   SHT$$INIT_ARRAY$$Limit                                                    
00010806  SPI_count                                                                 
0000aa2d  SafeHapiAuxAdiSelect                                                      
0000ae3d  SafeHapiVoid                                                              
0000ad15  SemaphoreP_constructBinary                                                
0000bc37  SemaphoreP_destruct                                                       
0000b89b  SemaphoreP_pend                                                           
0000bc3b  SemaphoreP_post                                                           
0000b11d  Serial_RxDataCallback                                                     
0000b941  SwiP_Params_init                                                          
0000a36d  SwiP_construct                                                            
0000bc3f  SwiP_destruct                                                             
0000bc43  SwiP_disable                                                              
0000bc47  SwiP_getTrigger                                                           
0000bc4b  SwiP_or                                                                   
0000bc4f  SwiP_post                                                                 
UNDEFED   SwiP_restore                                                              
00007f35  UARTCC26XX_close                                                          
00008f8d  UARTCC26XX_control                                                        
000105bc  UARTCC26XX_fxnTable                                                       
000055f5  UARTCC26XX_hwiIntFxn                                                      
0000b5a5  UARTCC26XX_init                                                           
00003a69  UARTCC26XX_open                                                           
00005095  UARTCC26XX_read                                                           
00008a65  UARTCC26XX_readCancel                                                     
0000bbd5  UARTCC26XX_readPolling                                                    
0000a48d  UARTCC26XX_swiIntFxn                                                      
00005911  UARTCC26XX_write                                                          
00007fc1  UARTCC26XX_writeCancel                                                    
0000bbdb  UARTCC26XX_writePolling                                                   
0000b5bd  UART_Params_init                                                          
000107d0  UART_config                                                               
0000bb2b  UART_control                                                              
00010807  UART_count                                                                
00010630  UART_defaultParams                                                        
00009fcd  UART_init                                                                 
0000a00d  UART_open                                                                 
0000bb35  UART_read                                                                 
0000bb3f  UART_write                                                                
0000b951  WatchdogCC26XX_clear                                                      
000083d7  WatchdogCC26XX_close                                                      
0000bbe1  WatchdogCC26XX_control                                                    
0000ae65  WatchdogCC26XX_convertMsToTicks                                           
000106d0  WatchdogCC26XX_fxnTable                                                   
0000bb7d  WatchdogCC26XX_init                                                       
000075e1  WatchdogCC26XX_open                                                       
0000aa5d  WatchdogCC26XX_setReload                                                  
0000b961  Watchdog_Params_init                                                      
0000bb49  Watchdog_clear                                                            
000107dc  Watchdog_config                                                           
00010808  Watchdog_count                                                            
000107e8  Watchdog_defaultParams                                                    
0000a04d  Watchdog_init                                                             
0000a08d  Watchdog_open                                                             
0000bb53  Watchdog_setReload                                                        
00000000  __ASM__                                                                   
20002198  __CIOBUF_                                                                 
0000006a  __ISA__                                                                   
0000007c  __PLAT__                                                                  
20005000  __STACK_END                                                               
00000400  __STACK_SIZE                                                              
000000a3  __TARG__                                                                  
00000478  __TI_CINIT_Base                                                           
000004d8  __TI_CINIT_Limit                                                          
00000434  __TI_Handler_Table_Base                                                   
00000440  __TI_Handler_Table_Limit                                                  
000074a5  __TI_auto_init                                                            
20004ab4  __TI_cleanup_ptr                                                          
00008acd  __TI_decompress_lzss                                                      
0000ba1f  __TI_decompress_none                                                      
20004ab8  __TI_dtors_ptr                                                            
20004abc  __TI_enable_exit_profile_output                                           
ffffffff  __TI_pprof_out_hndl                                                       
ffffffff  __TI_prof_data_size                                                       
ffffffff  __TI_prof_data_start                                                      
00008c37  __TI_readmsg                                                              
00000040  __TI_static_base__                                                        
00008c05  __TI_writemsg                                                             
0000baa9  __TI_zero_init                                                            
000000c8  __TRDR__                                                                  
0000bc57  __abort_execution                                                         
0000b635  __aeabi_lmul                                                              
0000835d  __aeabi_memclr                                                            
0000835d  __aeabi_memclr4                                                           
0000835d  __aeabi_memclr8                                                           
00007719  __aeabi_memcpy                                                            
00007719  __aeabi_memcpy4                                                           
00007719  __aeabi_memcpy8                                                           
0000835f  __aeabi_memset                                                            
0000835f  __aeabi_memset4                                                           
0000835f  __aeabi_memset8                                                           
00002bbd  __aeabi_uldivmod                                                          
ffffffff  __binit__                                                                 
ffffffff  __c_args__                                                                
0001ffa8  __ccfg                                                                    
200041d0  __primary_heap_end__                                                      
200031d0  __primary_heap_start__                                                    
20004c00  __stack                                                                   
00002423  __vla_alloc                                                               
00002331  __vla_dealloc                                                             
000023a3  __vla_dealloc_eh                                                          
0000b61d  _args_main                                                                
200031cc  _autoCalc                                                                 
00009c7d  _c_int00                                                                  
20004ae4  _lock                                                                     
200031cd  _mAddress                                                                 
0000b85b  _nop                                                                      
0000b853  _register_lock                                                            
0000b84d  _register_unlock                                                          
20004ae8  _unlock                                                                   
200031ce  _xgAddress                                                                
20003128  aBias                                                                     
2000316c  aBiasRaw                                                                  
2000318c  aRes                                                                      
000096a9  abort                                                                     
20002af4  accelTask                                                                 
0000a0cd  accelTaskFunc                                                             
20003190  adc0                                                                      
20003194  adc1                                                                      
00010400  adcCC26xxHWAttrs                                                          
200026c8  adcCC26xxObjects                                                          
00009c39  adcSetup                                                                  
20002b44  adcTask                                                                   
00005a0d  adcTaskFunc                                                               
200031b6  adcValue0                                                                 
20003198  adcValue0MicroVolt                                                        
200031b8  adcValue1                                                                 
2000319c  adcValue1MicroVolt                                                        
200031ba  ax                                                                        
200031bc  ay                                                                        
200031be  az                                                                        
ffffffff  binit                                                                     
20004728  bytesRead                                                                 
000095a9  calcaRes                                                                  
00009add  calcgRes                                                                  
000095fd  calcmRes                                                                  
0000b31d  clk0Fxn                                                                   
20002f00  clk0Struct                                                                
00009b25  clockSetup                                                                
0000862d  configInt                                                                 
000082e1  constrainScales                                                           
000099b5  copy_in                                                                   
0000a4c5  createADCTask                                                             
0000a4fd  createAccelTask                                                           
0000a535  createGPSTask                                                             
0000a56d  createGyroTask                                                            
0000a5a5  createMagTask                                                             
0000a5dd  createPWMTask                                                             
000092e1  createRFRXTasks                                                           
0000a615  createRFTXTasks                                                           
200031cf  driverlib_release_0_48919                                                 
000096b1  exit                                                                      
0000b5ed  free                                                                      
20003134  gBias                                                                     
20003174  gBiasRaw                                                                  
200031a0  gRes                                                                      
200042e4  globalPacket                                                              
2000470c  goodToGo                                                                  
00005b09  gpsFunc                                                                   
20002b94  gpsTask                                                                   
200022b8  gptimerCC26XXObjects                                                      
00010340  gptimerCC26xxHWAttrs                                                      
200031c0  gx                                                                        
200031c2  gy                                                                        
20002be4  gyroTask                                                                  
00009969  gyroTaskFunc                                                              
200031c4  gz                                                                        
200031a4  i2c                                                                       
0001074c  i2cCC26xxHWAttrs                                                          
200025e8  i2cCC26xxObjects                                                          
2000310c  i2cParams                                                                 
20003060  i2cTransaction                                                            
00004629  initAccel                                                                 
00003779  initGyro                                                                  
0000aabd  initI2C                                                                   
000051ad  initMag                                                                   
20003140  mBias                                                                     
2000317c  mBiasRaw                                                                  
0000b605  mReadByte                                                                 
0000af1d  mReadBytes                                                                
200031a8  mRes                                                                      
0000b13d  mWriteByte                                                                
20002c34  magTask                                                                   
00008261  magTaskFunc                                                               
00009749  main                                                                      
20004614  main_func_sp                                                              
0000abdd  malloc                                                                    
00007719  memcpy                                                                    
00008365  memset                                                                    
200031c6  mx                                                                        
200031c8  my                                                                        
200031ca  mz                                                                        
2000472c  numConnections                                                            
200045bc  pOverrides_fsk                                                            
2000444c  pOverrides_hsm                                                            
200044ac  pOverrides_lrm                                                            
20004508  pOverrides_ook                                                            
2000437c  pOverrides_sl_lr                                                          
20003184  params                                                                    
00008451  pinCallback                                                               
0000a64d  pinSetup                                                                  
200048d8  pinTable                                                                  
20004718  polarity                                                                  
20004720  pwm1                                                                      
20004724  pwm2                                                                      
20004710  pwmPeriod                                                                 
000084c9  pwmSetup                                                                  
20002c84  pwmTask                                                                   
00007215  pwmTaskFunc                                                               
20004712  pwmduty                                                                   
20004714  pwmdutyInc                                                                
200030ac  pwmparams                                                                 
2000471c  pwmtime                                                                   
000107b4  pwmtimerCC26xxHWAttrs                                                     
200024e8  pwmtimerCC26xxObjects                                                     
00007b41  readAccel                                                                 
00007bd5  readGyro                                                                  
00009799  readMag                                                                   
0000a18b  realloc                                                                   
0001044e  resourceDB                                                                
00010524  rfPowerTable                                                              
0001044d  rfPowerTableSize                                                          
00006b85  rxBeaconFunc                                                              
20002cd4  rxBeaconTask                                                              
00004e59  rxDoneCb                                                                  
0000af41  rxRestartFunc                                                             
20002d24  rxRestartTask                                                             
00005c05  semaphoreSetup                                                            
20002ed8  settings                                                                  
200049c8  shapeovr                                                                  
0000b737  strcpy                                                                    
0000b861  strlen                                                                    
200001a4  ti_sysbios_BIOS_Module__state__V                                          
1001bc25  ti_sysbios_BIOS_RtsGateProxy_Handle__label__S                             
UNDEFED   ti_sysbios_BIOS_RtsGateProxy_Handle__label__S__mangled__                  
1001bab5  ti_sysbios_BIOS_RtsGateProxy_Object__delete__S                            
1001c175  ti_sysbios_BIOS_RtsGateProxy_Params__init__S                              
UNDEFED   ti_sysbios_BIOS_RtsGateProxy_Params__init__S__mangled__                   
1001c245  ti_sysbios_BIOS_RtsGateProxy_enter__E                                     
1001c249  ti_sysbios_BIOS_RtsGateProxy_leave__E                                     
1001c271  ti_sysbios_BIOS_RtsGateProxy_query__E                                     
UNDEFED   ti_sysbios_BIOS_RtsGateProxy_query__E__mangled__                          
0000ab1d  ti_sysbios_BIOS_atExitFunc__I                                             
0000b74d  ti_sysbios_BIOS_exitFunc__I                                               
1001c031  ti_sysbios_BIOS_exit__E                                                   
1001bff5  ti_sysbios_BIOS_getCpuFreq__E                                             
0000b8df  ti_sysbios_BIOS_linkedWithIncorrectBootLibrary__E                         
0000ba3b  ti_sysbios_BIOS_nullFunc__I                                               
0000af65  ti_sysbios_BIOS_registerRTSLock__I                                        
0000af89  ti_sysbios_BIOS_removeRTSLock__I                                          
0000b15d  ti_sysbios_BIOS_rtsLock__I                                                
0000b665  ti_sysbios_BIOS_rtsUnlock__I                                              
1001c041  ti_sysbios_BIOS_setThreadType__E                                          
0000ab4d  ti_sysbios_BIOS_startFunc__I                                              
1001c051  ti_sysbios_BIOS_start__E                                                  
0000716d  ti_sysbios_family_arm_cc26xx_Boot_trimDevice                              
00001406  ti_sysbios_family_arm_cc26xx_Timer_Module__id__C                          
1001bb45  ti_sysbios_family_arm_cc26xx_Timer_Module__startupDone__S                 
200001e4  ti_sysbios_family_arm_cc26xx_Timer_Module__state__V                       
1001ba6d  ti_sysbios_family_arm_cc26xx_Timer_Module_startup__E                      
20004618  ti_sysbios_family_arm_cc26xx_Timer_Object__table__V                       
0000b17d  ti_sysbios_family_arm_cc26xx_Timer_dynamicStub__E                         
0000bc5b  ti_sysbios_family_arm_cc26xx_Timer_getCount64__E                          
0000a6bd  ti_sysbios_family_arm_cc26xx_Timer_getCurrentTick__E                      
1001c24d  ti_sysbios_family_arm_cc26xx_Timer_getExpiredTicks__E                     
0000afad  ti_sysbios_family_arm_cc26xx_Timer_getMaxTicks__E                         
1001c251  ti_sysbios_family_arm_cc26xx_Timer_getPeriod__E                           
0000a89d  ti_sysbios_family_arm_cc26xx_Timer_initDevice__I                          
1001a465  ti_sysbios_family_arm_cc26xx_Timer_periodicStub__E                        
1001b765  ti_sysbios_family_arm_cc26xx_Timer_postInit__I                            
0000a939  ti_sysbios_family_arm_cc26xx_Timer_setNextTick__E                         
1001c255  ti_sysbios_family_arm_cc26xx_Timer_setPeriod__E                           
0000a10d  ti_sysbios_family_arm_cc26xx_Timer_setThreshold__I                        
000086a1  ti_sysbios_family_arm_cc26xx_Timer_start__E                               
00001384  ti_sysbios_family_arm_cc26xx_Timer_startupNeeded__C                       
1001b791  ti_sysbios_family_arm_cc26xx_Timer_startup__E                             
200001ec  ti_sysbios_family_arm_cc26xx_TimestampProvider_Module__state__V           
1001bb65  ti_sysbios_family_arm_cc26xx_TimestampProvider_Module_startup__E          
0000ba2d  ti_sysbios_family_arm_cc26xx_TimestampProvider_get32__E                   
1001b9cd  ti_sysbios_family_arm_cc26xx_TimestampProvider_get64__E                   
1001c12b  ti_sysbios_family_arm_cc26xx_TimestampProvider_getFreq__E                 
00001408  ti_sysbios_family_arm_cc26xx_TimestampProvider_useClockTimer__C           
00001388  ti_sysbios_family_arm_m3_Hwi_E_alreadyDefined__C                          
0000138c  ti_sysbios_family_arm_m3_Hwi_E_hwiLimitExceeded__C                        
1001aed1  ti_sysbios_family_arm_m3_Hwi_Instance_finalize__E                         
1001a3c5  ti_sysbios_family_arm_m3_Hwi_Instance_init__E                             
20004ab2  ti_sysbios_family_arm_m3_Hwi_Module_State_0_excActive__A                  
20004b54  ti_sysbios_family_arm_m3_Hwi_Module_State_0_excContext__A                 
20004b58  ti_sysbios_family_arm_m3_Hwi_Module_State_0_excStack__A                   
0000140a  ti_sysbios_family_arm_m3_Hwi_Module__id__C                                
20004af4  ti_sysbios_family_arm_m3_Hwi_Module__root__V                              
1001bb85  ti_sysbios_family_arm_m3_Hwi_Module__startupDone__S                       
20000144  ti_sysbios_family_arm_m3_Hwi_Module__state__V                             
1001b1c1  ti_sysbios_family_arm_m3_Hwi_Module_startup__E                            
00001390  ti_sysbios_family_arm_m3_Hwi_NUM_INTERRUPTS__C                            
000011d0  ti_sysbios_family_arm_m3_Hwi_Object__DESC__C                              
00001070  ti_sysbios_family_arm_m3_Hwi_Object__PARAMS__C                            
00001394  ti_sysbios_family_arm_m3_Hwi_Object__count__C                             
1001aab1  ti_sysbios_family_arm_m3_Hwi_Object__create__S                            
1001bba5  ti_sysbios_family_arm_m3_Hwi_Object__delete__S                            
1001be65  ti_sysbios_family_arm_m3_Hwi_Object__destruct__S                          
1001b7bd  ti_sysbios_family_arm_m3_Hwi_Object__get__S                               
00001398  ti_sysbios_family_arm_m3_Hwi_Object__table__C                             
200049e0  ti_sysbios_family_arm_m3_Hwi_Object__table__V                             
1001c139  ti_sysbios_family_arm_m3_Hwi_Params__init__S                              
0000139c  ti_sysbios_family_arm_m3_Hwi_ccr__C                                       
1001af29  ti_sysbios_family_arm_m3_Hwi_construct                                    
0000a3a9  ti_sysbios_family_arm_m3_Hwi_construct2__E                                
1001ab15  ti_sysbios_family_arm_m3_Hwi_create                                       
1001c259  ti_sysbios_family_arm_m3_Hwi_delete                                       
1001c25d  ti_sysbios_family_arm_m3_Hwi_destruct                                     
1001c145  ti_sysbios_family_arm_m3_Hwi_disableFxn__E                                
1001b251  ti_sysbios_family_arm_m3_Hwi_disableInterrupt__E                          
1001aa49  ti_sysbios_family_arm_m3_Hwi_dispatchC__I                                 
20002870  ti_sysbios_family_arm_m3_Hwi_dispatchTable                                
1001c899  ti_sysbios_family_arm_m3_Hwi_dispatch__I                                  
1001c1f7  ti_sysbios_family_arm_m3_Hwi_doSwiRestore__I                              
1001c20f  ti_sysbios_family_arm_m3_Hwi_doTaskRestore__I                             
1001c151  ti_sysbios_family_arm_m3_Hwi_enableFxn__E                                 
1001b295  ti_sysbios_family_arm_m3_Hwi_enableInterrupt__E                           
1001c9fd  ti_sysbios_family_arm_m3_Hwi_excHandlerAsm__I                             
000013a0  ti_sysbios_family_arm_m3_Hwi_excHandlerFunc__C                            
1001bbc5  ti_sysbios_family_arm_m3_Hwi_excHandler__I                                
1001b461  ti_sysbios_family_arm_m3_Hwi_getStackInfo__E                              
1001a695  ti_sysbios_family_arm_m3_Hwi_initNVIC__E                                  
1001c9b5  ti_sysbios_family_arm_m3_Hwi_initStacks__E                                
000013a4  ti_sysbios_family_arm_m3_Hwi_nullIsrFunc__C                               
000013a8  ti_sysbios_family_arm_m3_Hwi_numSparseInterrupts__C                       
e000e000  ti_sysbios_family_arm_m3_Hwi_nvic                                         
1001ca3b  ti_sysbios_family_arm_m3_Hwi_pendSV__I                                    
1001c061  ti_sysbios_family_arm_m3_Hwi_plug__E                                      
1001a315  ti_sysbios_family_arm_m3_Hwi_postInit__I                                  
0000b9d1  ti_sysbios_family_arm_m3_Hwi_post__E                                      
000013ac  ti_sysbios_family_arm_m3_Hwi_priGroup__C                                  
20000000  ti_sysbios_family_arm_m3_Hwi_ramVectors                                   
00000000  ti_sysbios_family_arm_m3_Hwi_resetVectors                                 
1001c215  ti_sysbios_family_arm_m3_Hwi_restoreFxn__E                                
1001ca53  ti_sysbios_family_arm_m3_Hwi_return                                       
0000bbed  ti_sysbios_family_arm_m3_Hwi_setFunc__E                                   
1001be81  ti_sysbios_family_arm_m3_Hwi_setPriority__E                               
1001c1ff  ti_sysbios_family_arm_m3_Hwi_startup__E                                   
00010834  ti_sysbios_family_arm_m3_Hwi_swiDisable__C                                
00010838  ti_sysbios_family_arm_m3_Hwi_swiRestoreHwi__C                             
1001c009  ti_sysbios_family_arm_m3_Hwi_switchFromBootStack__E                       
1001c261  ti_sysbios_family_arm_m3_TaskSupport_Module__startupDone__S               
1001c969  ti_sysbios_family_arm_m3_TaskSupport_buildTaskStack                       
1001c15d  ti_sysbios_family_arm_m3_TaskSupport_getStackAlignment__E                 
1001ca55  ti_sysbios_family_arm_m3_TaskSupport_glue                                 
000013b0  ti_sysbios_family_arm_m3_TaskSupport_stackAlignment__C                    
1001b499  ti_sysbios_family_arm_m3_TaskSupport_start__E                             
1001ca65  ti_sysbios_family_arm_m3_TaskSupport_swap__E                              
1001ca1d  ti_sysbios_family_xxx_Hwi_switchAndRunFunc                                
1001bbe5  ti_sysbios_gates_GateHwi_Handle__label__S                                 
1001b45f  ti_sysbios_gates_GateHwi_Instance_init__E                                 
0000111c  ti_sysbios_gates_GateHwi_Module__FXNS__C                                  
0000140c  ti_sysbios_gates_GateHwi_Module__id__C                                    
20004afc  ti_sysbios_gates_GateHwi_Module__root__V                                  
000011f0  ti_sysbios_gates_GateHwi_Object__DESC__C                                  
00001330  ti_sysbios_gates_GateHwi_Object__PARAMS__C                                
1001ba91  ti_sysbios_gates_GateHwi_Object__create__S                                
1001bc05  ti_sysbios_gates_GateHwi_Object__delete__S                                
1001c169  ti_sysbios_gates_GateHwi_enter__E                                         
1001c21b  ti_sysbios_gates_GateHwi_leave__E                                         
1001c265  ti_sysbios_gates_GateHwi_query__E                                         
1001bc25  ti_sysbios_gates_GateMutex_Handle__label__S                               
000014d0  ti_sysbios_gates_GateMutex_Instance_State_sem__O                          
1001c071  ti_sysbios_gates_GateMutex_Instance_finalize__E                           
1001be9d  ti_sysbios_gates_GateMutex_Instance_init__E                               
00001140  ti_sysbios_gates_GateMutex_Module__FXNS__C                                
0000140e  ti_sysbios_gates_GateMutex_Module__id__C                                  
20004b04  ti_sysbios_gates_GateMutex_Module__root__V                                
00001210  ti_sysbios_gates_GateMutex_Object__DESC__C                                
00001348  ti_sysbios_gates_GateMutex_Object__PARAMS__C                              
1001b645  ti_sysbios_gates_GateMutex_Object__create__S                              
1001bab5  ti_sysbios_gates_GateMutex_Object__delete__S                              
1001bc45  ti_sysbios_gates_GateMutex_Object__destruct__S                            
200046a4  ti_sysbios_gates_GateMutex_Object__table__V                               
1001c175  ti_sysbios_gates_GateMutex_Params__init__S                                
1001b7e9  ti_sysbios_gates_GateMutex_construct                                      
1001b675  ti_sysbios_gates_GateMutex_create                                         
1001c269  ti_sysbios_gates_GateMutex_delete                                         
1001c26d  ti_sysbios_gates_GateMutex_destruct                                       
1001b6a5  ti_sysbios_gates_GateMutex_enter__E                                       
1001bf99  ti_sysbios_gates_GateMutex_leave__E                                       
1001c271  ti_sysbios_gates_GateMutex_query__E                                       
1001c275  ti_sysbios_hal_Hwi_HwiProxy_Module__startupDone__S                        
UNDEFED   ti_sysbios_hal_Hwi_HwiProxy_Module__startupDone__S__mangled__             
1001c081  ti_sysbios_hal_Hwi_HwiProxy_Object__create__S                             
1001bba5  ti_sysbios_hal_Hwi_HwiProxy_Object__delete__S                             
1001c139  ti_sysbios_hal_Hwi_HwiProxy_Params__init__S                               
UNDEFED   ti_sysbios_hal_Hwi_HwiProxy_Params__init__S__mangled__                    
1001be45  ti_sysbios_hal_Hwi_HwiProxy_create                                        
1001c279  ti_sysbios_hal_Hwi_HwiProxy_delete                                        
1001c27d  ti_sysbios_hal_Hwi_HwiProxy_disableInterrupt__E                           
UNDEFED   ti_sysbios_hal_Hwi_HwiProxy_disableInterrupt__E__mangled__                
1001c281  ti_sysbios_hal_Hwi_HwiProxy_enableInterrupt__E                            
UNDEFED   ti_sysbios_hal_Hwi_HwiProxy_enableInterrupt__E__mangled__                 
1001c285  ti_sysbios_hal_Hwi_HwiProxy_getStackInfo__E                               
UNDEFED   ti_sysbios_hal_Hwi_HwiProxy_getStackInfo__E__mangled__                    
0000b9d1  ti_sysbios_hal_Hwi_HwiProxy_post__E                                       
1001c289  ti_sysbios_hal_Hwi_HwiProxy_startup__E                                    
UNDEFED   ti_sysbios_hal_Hwi_HwiProxy_startup__E__mangled__                         
1001c28d  ti_sysbios_hal_Hwi_HwiProxy_switchFromBootStack__E                        
UNDEFED   ti_sysbios_hal_Hwi_HwiProxy_switchFromBootStack__E__mangled__             
1001c1ed  ti_sysbios_hal_Hwi_Instance_finalize__E                                   
1001b9f5  ti_sysbios_hal_Hwi_Instance_init__E                                       
20004b0c  ti_sysbios_hal_Hwi_Module__root__V                                        
1001c01d  ti_sysbios_hal_Hwi_Module_startup__E                                      
00001230  ti_sysbios_hal_Hwi_Object__DESC__C                                        
000010a0  ti_sysbios_hal_Hwi_Object__PARAMS__C                                      
1001bc65  ti_sysbios_hal_Hwi_Object__delete__S                                      
1001ab79  ti_sysbios_hal_Hwi_create                                                 
1001c291  ti_sysbios_hal_Hwi_delete                                                 
1001c27d  ti_sysbios_hal_Hwi_disableInterrupt__E                                    
UNDEFED   ti_sysbios_hal_Hwi_disableInterrupt__E                                    
1001c281  ti_sysbios_hal_Hwi_enableInterrupt__E                                     
UNDEFED   ti_sysbios_hal_Hwi_enableInterrupt__E                                     
1001c285  ti_sysbios_hal_Hwi_getStackInfo__E                                        
UNDEFED   ti_sysbios_hal_Hwi_getStackInfo__E                                        
1001b815  ti_sysbios_hal_Hwi_initStack                                              
0000b9d1  ti_sysbios_hal_Hwi_post__E                                                
1001c289  ti_sysbios_hal_Hwi_startup__E                                             
UNDEFED   ti_sysbios_hal_Hwi_startup__E                                             
1001c295  ti_sysbios_hal_Hwi_switchFromBootStack__E                                 
UNDEFED   ti_sysbios_hal_Hwi_switchFromBootStack__E                                 
000013b4  ti_sysbios_heaps_HeapMem_E_memory__C                                      
1001bc85  ti_sysbios_heaps_HeapMem_Handle__label__S                                 
1001b4d1  ti_sysbios_heaps_HeapMem_Instance_init__E                                 
1001bc25  ti_sysbios_heaps_HeapMem_Module_GateProxy_Handle__label__S                
UNDEFED   ti_sysbios_heaps_HeapMem_Module_GateProxy_Handle__label__S__mangled__     
1001bab5  ti_sysbios_heaps_HeapMem_Module_GateProxy_Object__delete__S               
1001c175  ti_sysbios_heaps_HeapMem_Module_GateProxy_Params__init__S                 
UNDEFED   ti_sysbios_heaps_HeapMem_Module_GateProxy_Params__init__S__mangled__      
1001c299  ti_sysbios_heaps_HeapMem_Module_GateProxy_enter__E                        
1001c29d  ti_sysbios_heaps_HeapMem_Module_GateProxy_leave__E                        
1001c271  ti_sysbios_heaps_HeapMem_Module_GateProxy_query__E                        
UNDEFED   ti_sysbios_heaps_HeapMem_Module_GateProxy_query__E__mangled__             
000010cc  ti_sysbios_heaps_HeapMem_Module__FXNS__C                                  
000013b8  ti_sysbios_heaps_HeapMem_Module__gateObj__C                               
00001410  ti_sysbios_heaps_HeapMem_Module__id__C                                    
20004b14  ti_sysbios_heaps_HeapMem_Module__root__V                                  
00001250  ti_sysbios_heaps_HeapMem_Object__DESC__C                                  
00001164  ti_sysbios_heaps_HeapMem_Object__PARAMS__C                                
000013bc  ti_sysbios_heaps_HeapMem_Object__count__C                                 
1001b841  ti_sysbios_heaps_HeapMem_Object__create__S                                
1001bca5  ti_sysbios_heaps_HeapMem_Object__delete__S                                
1001b86d  ti_sysbios_heaps_HeapMem_Object__get__S                                   
000013c0  ti_sysbios_heaps_HeapMem_Object__table__C                                 
200049f8  ti_sysbios_heaps_HeapMem_Object__table__V                                 
1001a195  ti_sysbios_heaps_HeapMem_alloc__E                                         
1001a791  ti_sysbios_heaps_HeapMem_free__E                                          
1001b209  ti_sysbios_heaps_HeapMem_getStats__E                                      
00008e65  ti_sysbios_heaps_HeapMem_initPrimary__I                                   
1001b541  ti_sysbios_heaps_HeapMem_init__I                                          
1001c2a1  ti_sysbios_heaps_HeapMem_isBlocking__E                                    
0001083c  ti_sysbios_heaps_HeapMem_primaryHeapBaseAddr__C                           
00010840  ti_sysbios_heaps_HeapMem_primaryHeapEndAddr__C                            
000013c4  ti_sysbios_heaps_HeapMem_reqAlign__C                                      
1001c101  ti_sysbios_heaps_HeapMem_restore__E                                       
1001bfc9  ti_sysbios_knl_Clock_Instance_finalize__E                                 
1001b509  ti_sysbios_knl_Clock_Instance_init__E                                     
000014d4  ti_sysbios_knl_Clock_Module_State_clockQ__O                               
20004b1c  ti_sysbios_knl_Clock_Module__root__V                                      
20000178  ti_sysbios_knl_Clock_Module__state__V                                     
1001bcc5  ti_sysbios_knl_Clock_Module_startup__E                                    
00001270  ti_sysbios_knl_Clock_Object__DESC__C                                      
00001188  ti_sysbios_knl_Clock_Object__PARAMS__C                                    
1001bad9  ti_sysbios_knl_Clock_Object__delete__S                                    
1001bce5  ti_sysbios_knl_Clock_Object__destruct__S                                  
200048f8  ti_sysbios_knl_Clock_Object__table__V                                     
1001c181  ti_sysbios_knl_Clock_Params__init__S                                      
1001c2a5  ti_sysbios_knl_Clock_TimerProxy_Module__startupDone__S                    
UNDEFED   ti_sysbios_knl_Clock_TimerProxy_Module__startupDone__S__mangled__         
1001c091  ti_sysbios_knl_Clock_TimerProxy_getCurrentTick__E                         
1001c2a9  ti_sysbios_knl_Clock_TimerProxy_getExpiredTicks__E                        
1001c0a1  ti_sysbios_knl_Clock_TimerProxy_getMaxTicks__E                            
1001c2ad  ti_sysbios_knl_Clock_TimerProxy_getPeriod__E                              
1001c0b1  ti_sysbios_knl_Clock_TimerProxy_setNextTick__E                            
1001b791  ti_sysbios_knl_Clock_TimerProxy_startup__E                                
UNDEFED   ti_sysbios_knl_Clock_TimerProxy_startup__E__mangled__                     
1001ba1d  ti_sysbios_knl_Clock_addI__E                                              
1001b575  ti_sysbios_knl_Clock_construct                                            
1001b3e9  ti_sysbios_knl_Clock_create                                               
1001c2b1  ti_sysbios_knl_Clock_delete                                               
1001c2b5  ti_sysbios_knl_Clock_destruct                                             
0000b875  ti_sysbios_knl_Clock_doTick__I                                            
0000ad6d  ti_sysbios_knl_Clock_getTicksUntilInterrupt__E                            
1001b6d5  ti_sysbios_knl_Clock_getTicks__E                                          
0000adc3  ti_sysbios_knl_Clock_getTimeout__E                                        
1001c18d  ti_sysbios_knl_Clock_getTimerHandle__E                                    
0000bc5f  ti_sysbios_knl_Clock_isActive__E                                          
1001be63  ti_sysbios_knl_Clock_logTick__E                                           
1001c2b9  ti_sysbios_knl_Clock_removeI__E                                           
1001beb9  ti_sysbios_knl_Clock_scheduleNextTick__E                                  
000013c8  ti_sysbios_knl_Clock_serviceMargin__C                                     
1001c2bd  ti_sysbios_knl_Clock_setTimeout__E                                        
1001a715  ti_sysbios_knl_Clock_startI__E                                            
1001bfdf  ti_sysbios_knl_Clock_start__E                                             
0000b19d  ti_sysbios_knl_Clock_stop__E                                              
00001414  ti_sysbios_knl_Clock_tickMode__C                                          
00010844  ti_sysbios_knl_Clock_tickPeriod__C                                        
00010848  ti_sysbios_knl_Clock_triggerClock__C                                      
0000bc7b  ti_sysbios_knl_Clock_triggerFunc__I                                       
1001a809  ti_sysbios_knl_Clock_walkQueueDynamic__E                                  
00007981  ti_sysbios_knl_Clock_workFuncDynamic__E                                   
1001a881  ti_sysbios_knl_Clock_workFunc__E                                          
0001084c  ti_sysbios_knl_Idle_funcList__A                                           
00001378  ti_sysbios_knl_Idle_funcList__C                                           
1001c207  ti_sysbios_knl_Idle_loop__E                                               
1001bd05  ti_sysbios_knl_Idle_run__E                                                
000014d8  ti_sysbios_knl_Mailbox_Instance_State_dataQue__O                          
000014dc  ti_sysbios_knl_Mailbox_Instance_State_dataSem__O                          
000014e0  ti_sysbios_knl_Mailbox_Instance_State_freeQue__O                          
000014e4  ti_sysbios_knl_Mailbox_Instance_State_freeSem__O                          
1001a8f9  ti_sysbios_knl_Mailbox_Instance_finalize__E                               
1001a0cd  ti_sysbios_knl_Mailbox_Instance_init__E                                   
20004b24  ti_sysbios_knl_Mailbox_Module__root__V                                    
1001b2d9  ti_sysbios_knl_Mailbox_Module_startup__E                                  
00001290  ti_sysbios_knl_Mailbox_Object__DESC__C                                    
0000103c  ti_sysbios_knl_Mailbox_Object__PARAMS__C                                  
000013cc  ti_sysbios_knl_Mailbox_Object__count__C                                   
1001bd25  ti_sysbios_knl_Mailbox_Object__delete__S                                  
1001bed5  ti_sysbios_knl_Mailbox_Object__destruct__S                                
1001b899  ti_sysbios_knl_Mailbox_Object__get__S                                     
000013d0  ti_sysbios_knl_Mailbox_Object__table__C                                   
1001c199  ti_sysbios_knl_Mailbox_Params__init__S                                    
1001af81  ti_sysbios_knl_Mailbox_construct                                          
1001abdd  ti_sysbios_knl_Mailbox_create                                             
1001c2c1  ti_sysbios_knl_Mailbox_delete                                             
1001c2c5  ti_sysbios_knl_Mailbox_destruct                                           
000013d4  ti_sysbios_knl_Mailbox_maxTypeAlign__C                                    
1001a969  ti_sysbios_knl_Mailbox_pend__E                                            
1001b8c5  ti_sysbios_knl_Mailbox_postInit__I                                        
1001a58d  ti_sysbios_knl_Mailbox_post__E                                            
1001c227  ti_sysbios_knl_Queue_Instance_init__E                                     
20004b2c  ti_sysbios_knl_Queue_Module__root__V                                      
000012b0  ti_sysbios_knl_Queue_Object__DESC__C                                      
00001360  ti_sysbios_knl_Queue_Object__PARAMS__C                                    
000013d8  ti_sysbios_knl_Queue_Object__count__C                                     
1001bd45  ti_sysbios_knl_Queue_Object__delete__S                                    
1001bef1  ti_sysbios_knl_Queue_Object__destruct__S                                  
1001bd65  ti_sysbios_knl_Queue_Object__get__S                                       
000013dc  ti_sysbios_knl_Queue_Object__table__C                                     
1001b8f1  ti_sysbios_knl_Queue_construct                                            
1001b91d  ti_sysbios_knl_Queue_create                                               
1001c2c9  ti_sysbios_knl_Queue_delete                                               
1001c1a5  ti_sysbios_knl_Queue_dequeue__E                                           
1001c2cd  ti_sysbios_knl_Queue_destruct                                             
1001c22d  ti_sysbios_knl_Queue_elemClear__E                                         
1001c10f  ti_sysbios_knl_Queue_empty__E                                             
1001c1b1  ti_sysbios_knl_Queue_enqueue__E                                           
1001bf0d  ti_sysbios_knl_Queue_get__E                                               
1001c2d1  ti_sysbios_knl_Queue_head__E                                              
1001c2d5  ti_sysbios_knl_Queue_next__E                                              
1001bf29  ti_sysbios_knl_Queue_put__E                                               
1001c11d  ti_sysbios_knl_Queue_remove__E                                            
000014e8  ti_sysbios_knl_Semaphore_Instance_State_pendQ__O                          
1001c0c1  ti_sysbios_knl_Semaphore_Instance_finalize__E                             
1001bafd  ti_sysbios_knl_Semaphore_Instance_init__E                                 
20004b34  ti_sysbios_knl_Semaphore_Module__root__V                                  
000012d0  ti_sysbios_knl_Semaphore_Object__DESC__C                                  
000011ac  ti_sysbios_knl_Semaphore_Object__PARAMS__C                                
1001bb21  ti_sysbios_knl_Semaphore_Object__delete__S                                
1001bd85  ti_sysbios_knl_Semaphore_Object__destruct__S                              
1001c1bd  ti_sysbios_knl_Semaphore_Params__init__S                                  
1001b705  ti_sysbios_knl_Semaphore_construct                                        
1001b5a9  ti_sysbios_knl_Semaphore_create                                           
1001c2d9  ti_sysbios_knl_Semaphore_delete                                           
1001c2dd  ti_sysbios_knl_Semaphore_destruct                                         
1001b949  ti_sysbios_knl_Semaphore_pendTimeout__I                                   
1001a001  ti_sysbios_knl_Semaphore_pend__E                                          
1001ac41  ti_sysbios_knl_Semaphore_post__E                                          
1001bf97  ti_sysbios_knl_Swi_Instance_finalize__E                                   
1001aca5  ti_sysbios_knl_Swi_Instance_init__E                                       
2000473c  ti_sysbios_knl_Swi_Module_State_0_readyQ__A                               
20004b3c  ti_sysbios_knl_Swi_Module__root__V                                        
200001c8  ti_sysbios_knl_Swi_Module__state__V                                       
1001c233  ti_sysbios_knl_Swi_Module_startup__E                                      
000012f0  ti_sysbios_knl_Swi_Object__DESC__C                                        
000010f4  ti_sysbios_knl_Swi_Object__PARAMS__C                                      
000013e0  ti_sysbios_knl_Swi_Object__count__C                                       
1001bda5  ti_sysbios_knl_Swi_Object__delete__S                                      
1001bf45  ti_sysbios_knl_Swi_Object__destruct__S                                    
1001b975  ti_sysbios_knl_Swi_Object__get__S                                         
000013e4  ti_sysbios_knl_Swi_Object__table__C                                       
2000476c  ti_sysbios_knl_Swi_Object__table__V                                       
1001c1c9  ti_sysbios_knl_Swi_Params__init__S                                        
1001b085  ti_sysbios_knl_Swi_construct                                              
0000b3fd  ti_sysbios_knl_Swi_construct2__E                                          
1001ad05  ti_sysbios_knl_Swi_create                                                 
1001c2e1  ti_sysbios_knl_Swi_delete                                                 
1001c2e5  ti_sysbios_knl_Swi_destruct                                               
1001c0d1  ti_sysbios_knl_Swi_disable__E                                             
1001c0e1  ti_sysbios_knl_Swi_enabled__E                                             
0000bac1  ti_sysbios_knl_Swi_getTrigger__E                                          
000013e8  ti_sysbios_knl_Swi_numPriorities__C                                       
0000b67d  ti_sysbios_knl_Swi_or__E                                                  
1001c2e9  ti_sysbios_knl_Swi_postInit__I                                            
1001b31d  ti_sysbios_knl_Swi_post__E                                                
1001ad61  ti_sysbios_knl_Swi_restoreHwi__E                                          
1001b5dd  ti_sysbios_knl_Swi_restore__E                                             
1001b0d5  ti_sysbios_knl_Swi_runLoop__I                                             
1001afd9  ti_sysbios_knl_Swi_run__I                                                 
1001b031  ti_sysbios_knl_Swi_schedule__I                                            
1001c239  ti_sysbios_knl_Swi_startup__E                                             
1001a4f9  ti_sysbios_knl_Task_Instance_finalize__E                                  
1001a259  ti_sysbios_knl_Task_Instance_init__E                                      
20004b5c  ti_sysbios_knl_Task_Module_State_0_idleTask__A                            
2000479c  ti_sysbios_knl_Task_Module_State_0_readyQ__A                              
000014ec  ti_sysbios_knl_Task_Module_State_inactiveQ__O                             
20004ac0  ti_sysbios_knl_Task_Module__root__V                                       
20000100  ti_sysbios_knl_Task_Module__state__V                                      
1001adbd  ti_sysbios_knl_Task_Module_startup__E                                     
00001310  ti_sysbios_knl_Task_Object__DESC__C                                       
00001000  ti_sysbios_knl_Task_Object__PARAMS__C                                     
000013ec  ti_sysbios_knl_Task_Object__count__C                                      
1001bdc5  ti_sysbios_knl_Task_Object__delete__S                                     
1001bf61  ti_sysbios_knl_Task_Object__destruct__S                                   
1001bde5  ti_sysbios_knl_Task_Object__get__S                                        
000013f0  ti_sysbios_knl_Task_Object__table__C                                      
1001c1d5  ti_sysbios_knl_Task_Params__init__S                                       
1001c2ed  ti_sysbios_knl_Task_SupportProxy_Module__startupDone__S                   
UNDEFED   ti_sysbios_knl_Task_SupportProxy_Module__startupDone__S__mangled__        
1001c2f1  ti_sysbios_knl_Task_SupportProxy_getStackAlignment__E                     
UNDEFED   ti_sysbios_knl_Task_SupportProxy_getStackAlignment__E__mangled__          
1001c2f5  ti_sysbios_knl_Task_SupportProxy_start__E                                 
UNDEFED   ti_sysbios_knl_Task_SupportProxy_start__E__mangled__                      
1001c2f9  ti_sysbios_knl_Task_SupportProxy_swap__E                                  
UNDEFED   ti_sysbios_knl_Task_SupportProxy_swap__E__mangled__                       
000013f4  ti_sysbios_knl_Task_allBlockedFunc__C                                     
1001b361  ti_sysbios_knl_Task_allBlockedFunction__I                                 
1001b611  ti_sysbios_knl_Task_blockI__E                                             
1001b125  ti_sysbios_knl_Task_construct                                             
1001ae19  ti_sysbios_knl_Task_create                                                
000013f8  ti_sysbios_knl_Task_defaultStackHeap__C                                   
000013fc  ti_sysbios_knl_Task_defaultStackSize__C                                   
1001c2fd  ti_sysbios_knl_Task_delete                                                
1001c301  ti_sysbios_knl_Task_destruct                                              
1001c0f1  ti_sysbios_knl_Task_disable__E                                            
1001c23f  ti_sysbios_knl_Task_enable__E                                             
1001be05  ti_sysbios_knl_Task_enter__I                                              
1001b425  ti_sysbios_knl_Task_exit__E                                               
00001412  ti_sysbios_knl_Task_initStackFlag__C                                      
00001400  ti_sysbios_knl_Task_numConstructedTasks__C                                
1001a611  ti_sysbios_knl_Task_postInit__I                                           
1001b735  ti_sysbios_knl_Task_processVitalTaskFlag__I                               
1001be25  ti_sysbios_knl_Task_restoreHwi__E                                         
1001ba45  ti_sysbios_knl_Task_restore__E                                            
1001b175  ti_sysbios_knl_Task_schedule__I                                           
1001c1e1  ti_sysbios_knl_Task_self__E                                               
1001bf7d  ti_sysbios_knl_Task_sleepTimeout__I                                       
1001a9d9  ti_sysbios_knl_Task_sleep__E                                              
1001ae75  ti_sysbios_knl_Task_startCore__E                                          
1001c305  ti_sysbios_knl_Task_startup__E                                            
1001ca6d  ti_sysbios_knl_Task_swapReturn                                            
1001b9a1  ti_sysbios_knl_Task_unblockI__E                                           
1001bfb1  ti_sysbios_knl_Task_unblock__E                                            
1001b3a5  ti_sysbios_knl_Task_yield__E                                              
00001494  ti_sysbios_rom_ROM_AONRTCChannelEnable                                    
00001498  ti_sysbios_rom_ROM_AONRTCCompareValueSet                                  
0000149c  ti_sysbios_rom_ROM_AONRTCCurrentCompareValueGet                           
000014a0  ti_sysbios_rom_ROM_AONRTCEventClear                                       
000014a4  ti_sysbios_rom_ROM_ti_sysbios_family_arm_cc26xx_Timer_getCount64__E       
000014a8  ti_sysbios_rom_ROM_ti_sysbios_family_arm_cc26xx_Timer_getCurrentTick__E   
000014ac  ti_sysbios_rom_ROM_ti_sysbios_family_arm_cc26xx_Timer_getMaxTicks__E      
000014b0  ti_sysbios_rom_ROM_ti_sysbios_family_arm_cc26xx_Timer_initDevice__I       
000014b4  ti_sysbios_rom_ROM_ti_sysbios_family_arm_cc26xx_Timer_setNextTick__E      
000014b8  ti_sysbios_rom_ROM_ti_sysbios_family_arm_cc26xx_Timer_setThreshold__I     
000014bc  ti_sysbios_rom_ROM_ti_sysbios_family_arm_cc26xx_Timer_start__E            
000014c0  ti_sysbios_rom_ROM_ti_sysbios_family_arm_cc26xx_TimestampProvider_get32__E
000014c4  ti_sysbios_rom_ROM_xdc_runtime_Startup_getState__I                        
000014c8  ti_sysbios_rom_ROM_xdc_runtime_System_SupportProxy_abort__E               
000014cc  ti_sysbios_rom_ROM_xdc_runtime_System_SupportProxy_exit__E                
0000bc7d  ti_sysbios_rom_cortexm_cc13xx_CC13xx_badRomRevision__E                    
0000b695  ti_sysbios_rom_cortexm_cc13xx_CC13xx_checkRevision__E                     
1001ca97  ti_sysbios_rom_cortexm_cc13xx_CC13xx_getRevision__E                       
0000b6ad  ti_uia_loggers_LoggerStopMode_Handle__label__S                            
20002e00  ti_uia_loggers_LoggerStopMode_Instance_State_0_hdr__A                     
20000680  ti_uia_loggers_LoggerStopMode_Instance_State_0_packetArray__A             
20002e80  ti_uia_loggers_LoggerStopMode_Instance_State_1_hdr__A                     
20000a80  ti_uia_loggers_LoggerStopMode_Instance_State_1_packetArray__A             
0000b419  ti_uia_loggers_LoggerStopMode_Instance_init__E                            
000103a0  ti_uia_loggers_LoggerStopMode_Module__FXNS__C                             
00010850  ti_uia_loggers_LoggerStopMode_Module__diagsEnabled__C                     
00010854  ti_uia_loggers_LoggerStopMode_Module__diagsIncluded__C                    
00010858  ti_uia_loggers_LoggerStopMode_Module__diagsMask__C                        
0001049a  ti_uia_loggers_LoggerStopMode_Module__id__C                               
20004b44  ti_uia_loggers_LoggerStopMode_Module__root__V                             
00009a01  ti_uia_loggers_LoggerStopMode_Module_startup__E                           
00010674  ti_uia_loggers_LoggerStopMode_Object__DESC__C                             
000105e4  ti_uia_loggers_LoggerStopMode_Object__PARAMS__C                           
0001085c  ti_uia_loggers_LoggerStopMode_Object__count__C                            
0000ab7d  ti_uia_loggers_LoggerStopMode_Object__create__S                           
0000b1bd  ti_uia_loggers_LoggerStopMode_Object__delete__S                           
0000b9e1  ti_uia_loggers_LoggerStopMode_Object__get__S                              
200043e4  ti_uia_loggers_LoggerStopMode_Object__table__V                            
0000b7bb  ti_uia_loggers_LoggerStopMode_disable__E                                  
0000b7d1  ti_uia_loggers_LoggerStopMode_enable__E                                   
00008c6d  ti_uia_loggers_LoggerStopMode_flush__E                                    
0000bc63  ti_uia_loggers_LoggerStopMode_getContents__E                              
0000bc67  ti_uia_loggers_LoggerStopMode_getFilterLevel__E                           
0000bc6b  ti_uia_loggers_LoggerStopMode_getInstanceId__E                            
0000bc6f  ti_uia_loggers_LoggerStopMode_getMaxLength__E                             
0000bc73  ti_uia_loggers_LoggerStopMode_getPriority__E                              
0000bc77  ti_uia_loggers_LoggerStopMode_getTransferType__E                          
00009d05  ti_uia_loggers_LoggerStopMode_initBuffer__I                               
00007d8d  ti_uia_loggers_LoggerStopMode_initQueueDescriptor__E                      
0000b9f1  ti_uia_loggers_LoggerStopMode_isEmpty__E                                  
00010792  ti_uia_loggers_LoggerStopMode_isTimestampEnabled__C                       
0000a8d1  ti_uia_loggers_LoggerStopMode_reset__E                                    
0000bc7f  ti_uia_loggers_LoggerStopMode_setFilterLevel__E                           
0000bc81  ti_uia_loggers_LoggerStopMode_setPriority__E                              
000066bd  ti_uia_loggers_LoggerStopMode_write0__E                                   
00005fcd  ti_uia_loggers_LoggerStopMode_write1__E                                   
000060b5  ti_uia_loggers_LoggerStopMode_write2__E                                   
00005cfd  ti_uia_loggers_LoggerStopMode_write4__E                                   
000054e9  ti_uia_loggers_LoggerStopMode_write8__E                                   
000044f1  ti_uia_loggers_LoggerStopMode_writeMemoryRange__E                         
00010860  ti_uia_runtime_ILoggerSnapshot_Interface__BASE__C                         
00010864  ti_uia_runtime_IUIATransfer_Interface__BASE__C                            
20004acc  ti_uia_runtime_QueueDescriptor_Module__state__V                           
00008715  ti_uia_runtime_QueueDescriptor_addToList__E                               
20004aec  ti_uia_runtime_QueueDescriptor_gPtrToFirstDescriptor                      
20004af0  ti_uia_runtime_QueueDescriptor_gUpdateCount                               
20002d74  txDataTask                                                                
0000619d  txDataTaskFunc                                                            
200031ac  uart                                                                      
00010694  uartCC26XXHWAttrs                                                         
2000206c  uartCC26XXObjects                                                         
20002f24  uartParams                                                                
00010824  watchdogCC26XXHWAttrs                                                     
20002eb0  watchdogCC26XXObjects                                                     
200031b0  watchdogHandle                                                            
0000a905  wdtSetup                                                                  
00001428  xdc_runtime_Assert_E_assertFailed__C                                      
1001c5a5  xdc_runtime_Assert_raise__I                                               
1001c6e9  xdc_runtime_Core_assignLabel__I                                           
1001c5ed  xdc_runtime_Core_assignParams__I                                          
1001c635  xdc_runtime_Core_constructObject__I                                       
1001c401  xdc_runtime_Core_createObject__I                                          
1001c4f5  xdc_runtime_Core_deleteObject__I                                          
1001c79d  xdc_runtime_Core_destructObject__I                                        
0000142c  xdc_runtime_Error_E_memory__C                                             
20004918  xdc_runtime_Error_IgnoreBlock                                             
1001c7b5  xdc_runtime_Error_check__E                                                
0000b6c5  xdc_runtime_Error_init__E                                                 
00001430  xdc_runtime_Error_policyFxn__C                                            
1001c483  xdc_runtime_Error_policySpin__E                                           
00001490  xdc_runtime_Error_policy__C                                               
1001c765  xdc_runtime_Error_raiseX__E                                               
1001c881  xdc_runtime_Gate_enterSystem__E                                           
1001c875  xdc_runtime_Gate_leaveSystem__E                                           
00010868  xdc_runtime_IFilterLogger_Interface__BASE__C                              
00001434  xdc_runtime_IGateProvider_Interface__BASE__C                              
00001438  xdc_runtime_IHeap_Interface__BASE__C                                      
0001086c  xdc_runtime_ILogger_Interface__BASE__C                                    
0000143c  xdc_runtime_IModule_Interface__BASE__C                                    
UNDEFED   xdc_runtime_Main_Module_GateProxy_Handle__label__S                        
UNDEFED   xdc_runtime_Main_Module_GateProxy_query__E                                
00001440  xdc_runtime_Main_Module__diagsEnabled__C                                  
00001444  xdc_runtime_Main_Module__diagsIncluded__C                                 
00001448  xdc_runtime_Main_Module__diagsMask__C                                     
00001488  xdc_runtime_Main_Module__id__C                                            
20004b60  xdc_runtime_Main_Module__root__V                                          
1001bc85  xdc_runtime_Memory_HeapProxy_Handle__label__S                             
UNDEFED   xdc_runtime_Memory_HeapProxy_Handle__label__S__mangled__                  
1001bca5  xdc_runtime_Memory_HeapProxy_Object__delete__S                            
1001c885  xdc_runtime_Memory_HeapProxy_alloc__E                                     
1001c889  xdc_runtime_Memory_HeapProxy_free__E                                      
0000148a  xdc_runtime_Memory_Module__id__C                                          
20000200  xdc_runtime_Memory_Module__state__V                                       
1001c485  xdc_runtime_Memory_alloc__E                                               
1001c849  xdc_runtime_Memory_calloc__E                                              
0000144c  xdc_runtime_Memory_defaultHeapInstance__C                                 
1001c7fd  xdc_runtime_Memory_free__E                                                
1001c855  xdc_runtime_Memory_getMaxDefaultTypeAlign__E                              
1001c781  xdc_runtime_Memory_valloc__E                                              
200001f0  xdc_runtime_Startup_Module__state__V                                      
00000001  xdc_runtime_Startup__EXECFXN__C                                           
00000001  xdc_runtime_Startup__RESETFXN__C                                          
00001450  xdc_runtime_Startup_execImpl__C                                           
1001c555  xdc_runtime_Startup_exec__E                                               
0000b8ad  xdc_runtime_Startup_exec__I                                               
000107f4  xdc_runtime_Startup_firstFxns__A                                          
00001418  xdc_runtime_Startup_firstFxns__C                                          
00009399  xdc_runtime_Startup_getState__I                                           
00001420  xdc_runtime_Startup_lastFxns__C                                           
00001454  xdc_runtime_Startup_maxPasses__C                                          
0000bacd  xdc_runtime_Startup_reset__I                                              
0000bad9  xdc_runtime_Startup_rtsDone__E                                            
0001077c  xdc_runtime_Startup_sfxnRts__A                                            
00001458  xdc_runtime_Startup_sfxnRts__C                                            
00010590  xdc_runtime_Startup_sfxnTab__A                                            
0000145c  xdc_runtime_Startup_sfxnTab__C                                            
00001460  xdc_runtime_Startup_startModsFxn__C                                       
1001c309  xdc_runtime_Startup_startMods__I                                          
00001464  xdc_runtime_SysCallback_abortFxn__C                                       
1001c80d  xdc_runtime_SysCallback_abort__E                                          
0000bc83  xdc_runtime_SysCallback_defaultAbort                                      
0000bc85  xdc_runtime_SysCallback_defaultExit                                       
00001468  xdc_runtime_SysCallback_exitFxn__C                                        
1001c81d  xdc_runtime_SysCallback_exit__E                                           
2000140c  xdc_runtime_SysMin_Module_State_0_outbuf__A                               
20004ad8  xdc_runtime_SysMin_Module__state__V                                       
0000b1dd  xdc_runtime_SysMin_Module_startup__E                                      
0000abad  xdc_runtime_SysMin_abort__E                                               
00010870  xdc_runtime_SysMin_bufSize__C                                             
0000b435  xdc_runtime_SysMin_exit__E                                                
00010878  xdc_runtime_SysMin_flushAtExit__C                                         
00009d49  xdc_runtime_SysMin_flush__E                                               
00010874  xdc_runtime_SysMin_outputFunc__C                                          
0000b039  xdc_runtime_SysMin_output__I                                              
0000a72d  xdc_runtime_SysMin_putch__E                                               
1001bbe5  xdc_runtime_System_Module_GateProxy_Handle__label__S                      
UNDEFED   xdc_runtime_System_Module_GateProxy_Handle__label__S__mangled__           
1001bc05  xdc_runtime_System_Module_GateProxy_Object__delete__S                     
1001c88d  xdc_runtime_System_Module_GateProxy_enter__E                              
1001c891  xdc_runtime_System_Module_GateProxy_leave__E                              
1001c265  xdc_runtime_System_Module_GateProxy_query__E                              
UNDEFED   xdc_runtime_System_Module_GateProxy_query__E__mangled__                   
20004b4c  xdc_runtime_System_Module_State_0_atexitHandlers__A                       
200001f8  xdc_runtime_System_Module__state__V                                       
1001c87b  xdc_runtime_System_Module_startup__E                                      
0000abad  xdc_runtime_System_SupportProxy_abort__E                                  
0000b435  xdc_runtime_System_SupportProxy_exit__E                                   
00009d49  xdc_runtime_System_SupportProxy_flush__E                                  
0000a72d  xdc_runtime_System_SupportProxy_putch__E                                  
0000146c  xdc_runtime_System_abortFxn__C                                            
1001c895  xdc_runtime_System_abortSpin__E                                           
000096a9  xdc_runtime_System_abortStd__E                                            
1001c745  xdc_runtime_System_abort__E                                               
1001c67d  xdc_runtime_System_atexit__E                                              
00001470  xdc_runtime_System_exitFxn__C                                             
1001c897  xdc_runtime_System_exitSpin__E                                            
000096b1  xdc_runtime_System_exitStd__E                                             
1001c7cd  xdc_runtime_System_exit__E                                                
00001474  xdc_runtime_System_maxAtexitHandlers__C                                   
1001c6b5  xdc_runtime_System_processAtExit__E                                       
0000148c  xdc_runtime_Text_charCnt__C                                               
0001087a  xdc_runtime_Text_charTab__A                                               
00001478  xdc_runtime_Text_charTab__C                                               
1001c719  xdc_runtime_Text_cordText__E                                              
0000148e  xdc_runtime_Text_isLoaded__C                                              
0000147c  xdc_runtime_Text_nameEmpty__C                                             
00001480  xdc_runtime_Text_nameStatic__C                                            
00001484  xdc_runtime_Text_nameUnknown__C                                           
1001c7e5  xdc_runtime_Text_ropeText__E                                              
1001c82d  xdc_runtime_Timestamp_SupportProxy_get32__E                               
0000ba2d  xdc_runtime_Timestamp_SupportProxy_get32__E__mangled__                    
1001b9cd  xdc_runtime_Timestamp_SupportProxy_get64__E                               
UNDEFED   xdc_runtime_Timestamp_SupportProxy_get64__E__mangled__                    
1001c12b  xdc_runtime_Timestamp_SupportProxy_getFreq__E                             
UNDEFED   xdc_runtime_Timestamp_SupportProxy_getFreq__E__mangled__                  
1001c82d  xdc_runtime_Timestamp_get32__E                                            
UNDEFED   xdc_runtime_Timestamp_get32__E                                            
1001b9cd  xdc_runtime_Timestamp_get64__E                                            
UNDEFED   xdc_runtime_Timestamp_get64__E                                            
1001c12b  xdc_runtime_Timestamp_getFreq__E                                          
UNDEFED   xdc_runtime_Timestamp_getFreq__E                                          
0000b6dd  xgReadByte                                                                
0000afd1  xgReadBytes                                                               
0000b1fd  xgWriteByte                                                               


GLOBAL SYMBOLS: SORTED BY Symbol Address 

address   name                                                                      
-------   ----                                                                      
00000000  __ASM__                                                                   
00000000  ti_sysbios_family_arm_m3_Hwi_resetVectors                                 
00000001  xdc_runtime_Startup__EXECFXN__C                                           
00000001  xdc_runtime_Startup__RESETFXN__C                                          
00000040  __TI_static_base__                                                        
0000006a  __ISA__                                                                   
0000007c  __PLAT__                                                                  
000000a3  __TARG__                                                                  
000000c8  __TRDR__                                                                  
00000400  __STACK_SIZE                                                              
00000434  __TI_Handler_Table_Base                                                   
00000440  __TI_Handler_Table_Limit                                                  
00000478  __TI_CINIT_Base                                                           
000004d8  __TI_CINIT_Limit                                                          
00001000  HEAPSIZE                                                                  
00001000  ti_sysbios_knl_Task_Object__PARAMS__C                                     
0000103c  ti_sysbios_knl_Mailbox_Object__PARAMS__C                                  
00001070  ti_sysbios_family_arm_m3_Hwi_Object__PARAMS__C                            
000010a0  ti_sysbios_hal_Hwi_Object__PARAMS__C                                      
000010cc  ti_sysbios_heaps_HeapMem_Module__FXNS__C                                  
000010f4  ti_sysbios_knl_Swi_Object__PARAMS__C                                      
0000111c  ti_sysbios_gates_GateHwi_Module__FXNS__C                                  
00001140  ti_sysbios_gates_GateMutex_Module__FXNS__C                                
00001164  ti_sysbios_heaps_HeapMem_Object__PARAMS__C                                
00001188  ti_sysbios_knl_Clock_Object__PARAMS__C                                    
000011ac  ti_sysbios_knl_Semaphore_Object__PARAMS__C                                
000011d0  ti_sysbios_family_arm_m3_Hwi_Object__DESC__C                              
000011f0  ti_sysbios_gates_GateHwi_Object__DESC__C                                  
00001210  ti_sysbios_gates_GateMutex_Object__DESC__C                                
00001230  ti_sysbios_hal_Hwi_Object__DESC__C                                        
00001250  ti_sysbios_heaps_HeapMem_Object__DESC__C                                  
00001270  ti_sysbios_knl_Clock_Object__DESC__C                                      
00001290  ti_sysbios_knl_Mailbox_Object__DESC__C                                    
000012b0  ti_sysbios_knl_Queue_Object__DESC__C                                      
000012d0  ti_sysbios_knl_Semaphore_Object__DESC__C                                  
000012f0  ti_sysbios_knl_Swi_Object__DESC__C                                        
00001310  ti_sysbios_knl_Task_Object__DESC__C                                       
00001330  ti_sysbios_gates_GateHwi_Object__PARAMS__C                                
00001348  ti_sysbios_gates_GateMutex_Object__PARAMS__C                              
00001360  ti_sysbios_knl_Queue_Object__PARAMS__C                                    
00001378  ti_sysbios_knl_Idle_funcList__C                                           
00001384  ti_sysbios_family_arm_cc26xx_Timer_startupNeeded__C                       
00001388  ti_sysbios_family_arm_m3_Hwi_E_alreadyDefined__C                          
0000138c  ti_sysbios_family_arm_m3_Hwi_E_hwiLimitExceeded__C                        
00001390  ti_sysbios_family_arm_m3_Hwi_NUM_INTERRUPTS__C                            
00001394  ti_sysbios_family_arm_m3_Hwi_Object__count__C                             
00001398  ti_sysbios_family_arm_m3_Hwi_Object__table__C                             
0000139c  ti_sysbios_family_arm_m3_Hwi_ccr__C                                       
000013a0  ti_sysbios_family_arm_m3_Hwi_excHandlerFunc__C                            
000013a4  ti_sysbios_family_arm_m3_Hwi_nullIsrFunc__C                               
000013a8  ti_sysbios_family_arm_m3_Hwi_numSparseInterrupts__C                       
000013ac  ti_sysbios_family_arm_m3_Hwi_priGroup__C                                  
000013b0  ti_sysbios_family_arm_m3_TaskSupport_stackAlignment__C                    
000013b4  ti_sysbios_heaps_HeapMem_E_memory__C                                      
000013b8  ti_sysbios_heaps_HeapMem_Module__gateObj__C                               
000013bc  ti_sysbios_heaps_HeapMem_Object__count__C                                 
000013c0  ti_sysbios_heaps_HeapMem_Object__table__C                                 
000013c4  ti_sysbios_heaps_HeapMem_reqAlign__C                                      
000013c8  ti_sysbios_knl_Clock_serviceMargin__C                                     
000013cc  ti_sysbios_knl_Mailbox_Object__count__C                                   
000013d0  ti_sysbios_knl_Mailbox_Object__table__C                                   
000013d4  ti_sysbios_knl_Mailbox_maxTypeAlign__C                                    
000013d8  ti_sysbios_knl_Queue_Object__count__C                                     
000013dc  ti_sysbios_knl_Queue_Object__table__C                                     
000013e0  ti_sysbios_knl_Swi_Object__count__C                                       
000013e4  ti_sysbios_knl_Swi_Object__table__C                                       
000013e8  ti_sysbios_knl_Swi_numPriorities__C                                       
000013ec  ti_sysbios_knl_Task_Object__count__C                                      
000013f0  ti_sysbios_knl_Task_Object__table__C                                      
000013f4  ti_sysbios_knl_Task_allBlockedFunc__C                                     
000013f8  ti_sysbios_knl_Task_defaultStackHeap__C                                   
000013fc  ti_sysbios_knl_Task_defaultStackSize__C                                   
00001400  ti_sysbios_knl_Task_numConstructedTasks__C                                
00001406  ti_sysbios_family_arm_cc26xx_Timer_Module__id__C                          
00001408  ti_sysbios_family_arm_cc26xx_TimestampProvider_useClockTimer__C           
0000140a  ti_sysbios_family_arm_m3_Hwi_Module__id__C                                
0000140c  ti_sysbios_gates_GateHwi_Module__id__C                                    
0000140e  ti_sysbios_gates_GateMutex_Module__id__C                                  
00001410  ti_sysbios_heaps_HeapMem_Module__id__C                                    
00001412  ti_sysbios_knl_Task_initStackFlag__C                                      
00001414  ti_sysbios_knl_Clock_tickMode__C                                          
00001418  xdc_runtime_Startup_firstFxns__C                                          
00001420  xdc_runtime_Startup_lastFxns__C                                           
00001428  xdc_runtime_Assert_E_assertFailed__C                                      
0000142c  xdc_runtime_Error_E_memory__C                                             
00001430  xdc_runtime_Error_policyFxn__C                                            
00001434  xdc_runtime_IGateProvider_Interface__BASE__C                              
00001438  xdc_runtime_IHeap_Interface__BASE__C                                      
0000143c  xdc_runtime_IModule_Interface__BASE__C                                    
00001440  xdc_runtime_Main_Module__diagsEnabled__C                                  
00001444  xdc_runtime_Main_Module__diagsIncluded__C                                 
00001448  xdc_runtime_Main_Module__diagsMask__C                                     
0000144c  xdc_runtime_Memory_defaultHeapInstance__C                                 
00001450  xdc_runtime_Startup_execImpl__C                                           
00001454  xdc_runtime_Startup_maxPasses__C                                          
00001458  xdc_runtime_Startup_sfxnRts__C                                            
0000145c  xdc_runtime_Startup_sfxnTab__C                                            
00001460  xdc_runtime_Startup_startModsFxn__C                                       
00001464  xdc_runtime_SysCallback_abortFxn__C                                       
00001468  xdc_runtime_SysCallback_exitFxn__C                                        
0000146c  xdc_runtime_System_abortFxn__C                                            
00001470  xdc_runtime_System_exitFxn__C                                             
00001474  xdc_runtime_System_maxAtexitHandlers__C                                   
00001478  xdc_runtime_Text_charTab__C                                               
0000147c  xdc_runtime_Text_nameEmpty__C                                             
00001480  xdc_runtime_Text_nameStatic__C                                            
00001484  xdc_runtime_Text_nameUnknown__C                                           
00001488  xdc_runtime_Main_Module__id__C                                            
0000148a  xdc_runtime_Memory_Module__id__C                                          
0000148c  xdc_runtime_Text_charCnt__C                                               
0000148e  xdc_runtime_Text_isLoaded__C                                              
00001490  xdc_runtime_Error_policy__C                                               
00001494  ti_sysbios_rom_ROM_AONRTCChannelEnable                                    
00001498  ti_sysbios_rom_ROM_AONRTCCompareValueSet                                  
0000149c  ti_sysbios_rom_ROM_AONRTCCurrentCompareValueGet                           
000014a0  ti_sysbios_rom_ROM_AONRTCEventClear                                       
000014a4  ti_sysbios_rom_ROM_ti_sysbios_family_arm_cc26xx_Timer_getCount64__E       
000014a8  ti_sysbios_rom_ROM_ti_sysbios_family_arm_cc26xx_Timer_getCurrentTick__E   
000014ac  ti_sysbios_rom_ROM_ti_sysbios_family_arm_cc26xx_Timer_getMaxTicks__E      
000014b0  ti_sysbios_rom_ROM_ti_sysbios_family_arm_cc26xx_Timer_initDevice__I       
000014b4  ti_sysbios_rom_ROM_ti_sysbios_family_arm_cc26xx_Timer_setNextTick__E      
000014b8  ti_sysbios_rom_ROM_ti_sysbios_family_arm_cc26xx_Timer_setThreshold__I     
000014bc  ti_sysbios_rom_ROM_ti_sysbios_family_arm_cc26xx_Timer_start__E            
000014c0  ti_sysbios_rom_ROM_ti_sysbios_family_arm_cc26xx_TimestampProvider_get32__E
000014c4  ti_sysbios_rom_ROM_xdc_runtime_Startup_getState__I                        
000014c8  ti_sysbios_rom_ROM_xdc_runtime_System_SupportProxy_abort__E               
000014cc  ti_sysbios_rom_ROM_xdc_runtime_System_SupportProxy_exit__E                
000014d0  ti_sysbios_gates_GateMutex_Instance_State_sem__O                          
000014d4  ti_sysbios_knl_Clock_Module_State_clockQ__O                               
000014d8  ti_sysbios_knl_Mailbox_Instance_State_dataQue__O                          
000014dc  ti_sysbios_knl_Mailbox_Instance_State_dataSem__O                          
000014e0  ti_sysbios_knl_Mailbox_Instance_State_freeQue__O                          
000014e4  ti_sysbios_knl_Mailbox_Instance_State_freeSem__O                          
000014e8  ti_sysbios_knl_Semaphore_Instance_State_pendQ__O                          
000014ec  ti_sysbios_knl_Task_Module_State_inactiveQ__O                             
0000193d  EasyLink_init                                                             
00001d01  HOSTwrite                                                                 
00001d4d  HOSTunlink                                                                
00001d85  HOSTtime64                                                                
00001dd3  HOSTtime                                                                  
00001e0d  HOSTrename                                                                
00001e6b  HOSTread                                                                  
00001eb7  HOSTopen                                                                  
00001f09  HOSTlseek                                                                 
00001f65  HOSTgetenv                                                                
00001fa3  HOSTclose                                                                 
00001fdb  HOSTclock                                                                 
00002025  PowerCC26XX_auxISR                                                        
00002331  __vla_dealloc                                                             
000023a3  __vla_dealloc_eh                                                          
00002423  __vla_alloc                                                               
00002579  NOROM_SysCtrlSetRechargeBeforePowerDown                                   
000027a1  Power_sleep                                                               
000029bd  RF_open                                                                   
00002bbd  __aeabi_uldivmod                                                          
00002db1  LSM9DS1init                                                               
00002f95  EasyLink_setRfPwr                                                         
000032d5  PowerCC26XX_doCalibrate                                                   
00003465  PIN_init                                                                  
00003779  initGyro                                                                  
000038f9  EasyLink_receiveAsync                                                     
00003a69  UARTCC26XX_open                                                           
00003bcd  RF_postCmd                                                                
00003d25  I2CCC26XX_open                                                            
00003fcd  RF_cancelCmd                                                              
000043b5  EasyLink_transmit                                                         
000044f1  ti_uia_loggers_LoggerStopMode_writeMemoryRange__E                         
00004629  initAccel                                                                 
0000475d  NOROM_SetupAfterColdResetWakeupFromShutDownCfg3                           
0000488d  Power_init                                                                
00004e59  rxDoneCb                                                                  
00004f79  RF_close                                                                  
00005095  UARTCC26XX_read                                                           
000051ad  initMag                                                                   
000054e9  ti_uia_loggers_LoggerStopMode_write8__E                                   
000055f5  UARTCC26XX_hwiIntFxn                                                      
000056ff  PWMTimerCC26XX_init                                                       
00005911  UARTCC26XX_write                                                          
00005a0d  adcTaskFunc                                                               
00005b09  gpsFunc                                                                   
00005c05  semaphoreSetup                                                            
00005cfd  ti_uia_loggers_LoggerStopMode_write4__E                                   
00005df1  NOROM_SetupAfterColdResetWakeupFromShutDownCfg2                           
00005ee1  PWMTimerCC26XX_open                                                       
00005fcd  ti_uia_loggers_LoggerStopMode_write1__E                                   
000060b5  ti_uia_loggers_LoggerStopMode_write2__E                                   
0000619d  txDataTaskFunc                                                            
0000627d  NOROM_RFCOverrideUpdate                                                   
00006435  EasyLink_enableRxAddrFilter                                               
000066bd  ti_uia_loggers_LoggerStopMode_write0__E                                   
00006795  NOROM_RFCRfTrimRead                                                       
00006869  PowerCC26XX_standbyPolicy                                                 
00006939  ADCCC26XX_convert                                                         
00006b85  rxBeaconFunc                                                              
00006c49  I2CCC26XX_transfer                                                        
00006d09  NOROM_AUXADCEnableSync                                                    
00006dc9  GPTimerCC26XX_open                                                        
00006e85  I2CreadBytes                                                              
00006f41  Power_releaseDependency                                                   
000070b9  Power_setDependency                                                       
0000716d  NOROM_SetupTrimDevice                                                     
0000716d  ti_sysbios_family_arm_cc26xx_Boot_trimDevice                              
00007215  pwmTaskFunc                                                               
000072bd  NOROM_SetupAfterColdResetWakeupFromShutDownCfg1                           
00007405  GPTimerCC26XX_close                                                       
000074a5  __TI_auto_init                                                            
000075e1  WatchdogCC26XX_open                                                       
00007719  __aeabi_memcpy                                                            
00007719  __aeabi_memcpy4                                                           
00007719  __aeabi_memcpy8                                                           
00007719  memcpy                                                                    
00007851  PIN_open                                                                  
00007981  ti_sysbios_knl_Clock_workFuncDynamic__E                                   
00007a19  EasyLink_abort                                                            
00007aad  NOROM_AUXADCDisable                                                       
00007b41  readAccel                                                                 
00007bd5  readGyro                                                                  
00007cfd  I2CCC26XX_cancel                                                          
00007d8d  ti_uia_loggers_LoggerStopMode_initQueueDescriptor__E                      
00007ea9  RF_pendCmd                                                                
00007f35  UARTCC26XX_close                                                          
00007fc1  UARTCC26XX_writeCancel                                                    
0000804d  ADCCC26XX_open                                                            
000081e1  PWMTimerCC26XX_setPeriod                                                  
00008261  magTaskFunc                                                               
000082e1  constrainScales                                                           
0000835d  __aeabi_memclr                                                            
0000835d  __aeabi_memclr4                                                           
0000835d  __aeabi_memclr8                                                           
0000835f  __aeabi_memset                                                            
0000835f  __aeabi_memset4                                                           
0000835f  __aeabi_memset8                                                           
00008365  memset                                                                    
000083d7  WatchdogCC26XX_close                                                      
000083d9  LSM9DS1begin                                                              
00008451  pinCallback                                                               
000084c9  pwmSetup                                                                  
000085b9  NOROM_SetupSetVddrLevel                                                   
0000862d  configInt                                                                 
000086a1  ti_sysbios_family_arm_cc26xx_Timer_start__E                               
00008715  ti_uia_runtime_QueueDescriptor_addToList__E                               
00008789  PowerCC26XX_initiateCalibration                                           
000087f5  I2CCC26XX_close                                                           
0000885d  I2CreadByte                                                               
000088c5  I2CwriteByte                                                              
0000892d  NOROM_SetupGetTrimForAmpcompCtrl                                          
00008995  NOROM_SetupGetTrimForAnabypassValue1                                      
000089fd  NOROM_SysCtrl_DCDC_VoltageConditionalControl                              
00008a65  UARTCC26XX_readCancel                                                     
00008acd  __TI_decompress_lzss                                                      
00008c05  __TI_writemsg                                                             
00008c33  C$$IO$$                                                                   
00008c37  __TI_readmsg                                                              
00008c6d  ti_uia_loggers_LoggerStopMode_flush__E                                    
00008cd5  NOROM_OSCHF_AttemptToSwitchToXosc                                         
00008d39  PIN_add                                                                   
00008e65  ti_sysbios_heaps_HeapMem_initPrimary__I                                   
00008f2d  NOROM_OSCClockSourceSet                                                   
00008f8d  UARTCC26XX_control                                                        
000091cd  NOROM_SysCtrlAdjustRechargeAfterPowerDown                                 
00009229  PowerCC26XX_RCOSC_clockFunc                                               
00009285  PowerCC26XX_calibrate                                                     
000092e1  createRFRXTasks                                                           
00009399  xdc_runtime_Startup_getState__I                                           
000093f5  GPTimerCC26XX_stop                                                        
000094a5  PIN_remove                                                                
00009555  RF_getCurrentTime                                                         
000095a9  calcaRes                                                                  
000095fd  calcmRes                                                                  
000096a5  C$$EXIT                                                                   
000096a9  abort                                                                     
000096a9  xdc_runtime_System_abortStd__E                                            
000096b1  exit                                                                      
000096b1  xdc_runtime_System_exitStd__E                                             
000096f9  NOROM_SetupSetCacheModeAccordingToCcfgSetting                             
00009749  main                                                                      
00009799  readMag                                                                   
00009839  GPTimerCC26XX_start                                                       
00009969  gyroTaskFunc                                                              
000099b5  copy_in                                                                   
00009a01  ti_uia_loggers_LoggerStopMode_Module_startup__E                           
00009a4d  ClockP_construct                                                          
00009a95  PIN_setOutputEnable                                                       
00009add  calcgRes                                                                  
00009b25  clockSetup                                                                
00009bb1  RF_releasePowerConstraint                                                 
00009bf5  RingBuf_put                                                               
00009c39  adcSetup                                                                  
00009c7d  ResetISR                                                                  
00009c7d  _c_int00                                                                  
00009d05  ti_uia_loggers_LoggerStopMode_initBuffer__I                               
00009d49  xdc_runtime_SysMin_flush__E                                               
00009d49  xdc_runtime_System_SupportProxy_flush__E                                  
00009d8d  ADCCC26XX_convertToMicroVolts                                             
00009dcd  ADC_init                                                                  
00009e0d  ADC_open                                                                  
00009e4d  HwiP_construct                                                            
00009e8d  I2C_init                                                                  
00009ecd  I2C_open                                                                  
00009f0d  PWMTimerCC26XX_setDuty                                                    
00009f4d  PWM_init                                                                  
00009f8d  PWM_open                                                                  
00009fcd  UART_init                                                                 
0000a00d  UART_open                                                                 
0000a04d  Watchdog_init                                                             
0000a08d  Watchdog_open                                                             
0000a0cd  accelTaskFunc                                                             
0000a10d  ti_sysbios_family_arm_cc26xx_Timer_setThreshold__I                        
0000a14d  RingBuf_get                                                               
0000a18b  realloc                                                                   
0000a1c9  ADCCC26XX_close                                                           
0000a205  NOROM_ChipInfo_GetHwRevision                                              
0000a241  NOROM_OSC_HPOSCRelativeFrequencyOffsetGet                                 
0000a27d  NOROM_RFCSynthPowerDown                                                   
0000a2b9  PowerCC26XX_isStableXOSC_HF                                               
0000a2f5  PowerCC26XX_switchXOSC_HF                                                 
0000a331  RF_runCmd                                                                 
0000a36d  SwiP_construct                                                            
0000a3a9  ti_sysbios_family_arm_m3_Hwi_construct2__E                                
0000a3e5  PIN_setOutputValue                                                        
0000a48d  UARTCC26XX_swiIntFxn                                                      
0000a4c5  createADCTask                                                             
0000a4fd  createAccelTask                                                           
0000a535  createGPSTask                                                             
0000a56d  createGyroTask                                                            
0000a5a5  createMagTask                                                             
0000a5dd  createPWMTask                                                             
0000a615  createRFTXTasks                                                           
0000a64d  pinSetup                                                                  
0000a6bd  ti_sysbios_family_arm_cc26xx_Timer_getCurrentTick__E                      
0000a72d  xdc_runtime_SysMin_putch__E                                               
0000a72d  xdc_runtime_System_SupportProxy_putch__E                                  
0000a799  NOROM_AUXADCDisableInputScaling                                           
0000a7cd  NOROM_OSCHF_SwitchToRcOscTurnOffXosc                                      
0000a801  PIN_setConfig                                                             
0000a835  Power_releaseConstraint                                                   
0000a89d  ti_sysbios_family_arm_cc26xx_Timer_initDevice__I                          
0000a8d1  ti_uia_loggers_LoggerStopMode_reset__E                                    
0000a905  wdtSetup                                                                  
0000a939  ti_sysbios_family_arm_cc26xx_Timer_setNextTick__E                         
0000a96d  GPTimerCC26XX_configureDebugStall                                         
0000a99d  NOROM_ChipInfo_GetChipType                                                
0000a9cd  NOROM_SetupSetAonRtcSubSecInc                                             
0000a9fd  Power_setConstraint                                                       
0000aa2d  SafeHapiAuxAdiSelect                                                      
0000aa5d  WatchdogCC26XX_setReload                                                  
0000aabd  initI2C                                                                   
0000ab1d  ti_sysbios_BIOS_atExitFunc__I                                             
0000ab4d  ti_sysbios_BIOS_startFunc__I                                              
0000ab7d  ti_uia_loggers_LoggerStopMode_Object__create__S                           
0000abad  xdc_runtime_SysMin_abort__E                                               
0000abad  xdc_runtime_System_SupportProxy_abort__E                                  
0000abdd  malloc                                                                    
0000ac0d  NOROM_DDI32RegWrite                                                       
0000ac39  NOROM_OSCClockSourceGet                                                   
0000ac65  NOROM_RFCCPEPatchReset                                                    
0000ac91  NOROM_SetupGetTrimForRadcExtCfg                                           
0000acbd  PINCC26XX_setMux                                                          
0000ace9  PWMTimerCC26XX_close                                                      
0000ad15  SemaphoreP_constructBinary                                                
0000ad6d  ti_sysbios_knl_Clock_getTicksUntilInterrupt__E                            
0000ad99  Display_doPrintf                                                          
0000adc3  ti_sysbios_knl_Clock_getTimeout__E                                        
0000aded  NOROM_AONBatMonTemperatureGetDegC                                         
0000ae15  Power_registerNotify                                                      
0000ae3d  SafeHapiVoid                                                              
0000ae65  WatchdogCC26XX_convertMsToTicks                                           
0000ae8d  NOROM_RFCDoorbellSendTo                                                   
0000aeb1  PINCC26XX_getPinCount                                                     
0000aed5  PWMTimerCC26XX_start                                                      
0000af1d  mReadBytes                                                                
0000af41  rxRestartFunc                                                             
0000af65  ti_sysbios_BIOS_registerRTSLock__I                                        
0000af89  ti_sysbios_BIOS_removeRTSLock__I                                          
0000afad  ti_sysbios_family_arm_cc26xx_Timer_getMaxTicks__E                         
0000afd1  xgReadBytes                                                               
0000aff5  List_put                                                                  
0000b017  NOROM_AUXADCAdjustValueForGainAndOffset                                   
0000b039  xdc_runtime_SysMin_output__I                                              
0000b05d  NOROM_RFCAdi3VcoLdoVoltageMode                                            
0000b07d  NOROM_SetupGetTrimForXoscHfCtl                                            
0000b09d  PWMTimerCC26XX_stop                                                       
0000b0bd  PowerCC26XX_schedulerDisable                                              
0000b0dd  PowerCC26XX_schedulerRestore                                              
0000b0fd  Power_unregisterNotify                                                    
0000b11d  Serial_RxDataCallback                                                     
0000b13d  mWriteByte                                                                
0000b15d  ti_sysbios_BIOS_rtsLock__I                                                
0000b17d  ti_sysbios_family_arm_cc26xx_Timer_dynamicStub__E                         
0000b19d  ti_sysbios_knl_Clock_stop__E                                              
0000b1bd  ti_uia_loggers_LoggerStopMode_Object__delete__S                           
0000b1dd  xdc_runtime_SysMin_Module_startup__E                                      
0000b1fd  xgWriteByte                                                               
0000b21d  PIN_close                                                                 
0000b23b  Power_getTransitionLatency                                                
0000b259  NOROM_AUXADCGetAdjustmentGain                                             
0000b275  NOROM_ChipInfo_GetChipFamily                                              
0000b291  NOROM_SetupGetTrimForAmpcompTh2                                           
0000b2ad  NOROM_SetupGetTrimForRcOscLfRtuneCtuneTrim                                
0000b301  RF_setPowerConstraint                                                     
0000b31d  clk0Fxn                                                                   
0000b3fd  ti_sysbios_knl_Swi_construct2__E                                          
0000b419  ti_uia_loggers_LoggerStopMode_Instance_init__E                            
0000b435  xdc_runtime_SysMin_exit__E                                                
0000b435  xdc_runtime_System_SupportProxy_exit__E                                   
0000b451  PWMTimerCC26XX_control                                                    
0000b46d  CC1310_LAUNCHXL_initGeneral                                               
0000b485  NOROM_AONRTCCurrentCompareValueGet                                        
0000b49d  NOROM_AUXADCGetAdjustmentOffset                                           
0000b4b5  NOROM_ChipInfo_GetPackageType                                             
0000b4cd  NOROM_OSCHF_TurnOnXosc                                                    
0000b4e5  NOROM_RFCCpeIntGetAndClear                                                
0000b4fd  NOROM_SetupGetTrimForAdcShModeEn                                          
0000b515  NOROM_SetupGetTrimForAdcShVbufEn                                          
0000b52d  NOROM_SetupGetTrimForAmpcompTh1                                           
0000b545  NOROM_SetupGetTrimForDblrLoopFilterResetVoltage                           
0000b55d  NOROM_SetupGetTrimForRcOscLfIBiasTrim                                     
0000b575  NOROM_SetupGetTrimForXoscLfRegulatorAndCmirrwrRatio                       
0000b58d  Power_idleFunc                                                            
0000b5a5  UARTCC26XX_init                                                           
0000b5bd  UART_Params_init                                                          
0000b5ed  free                                                                      
0000b605  mReadByte                                                                 
0000b61d  _args_main                                                                
0000b635  __aeabi_lmul                                                              
0000b665  ti_sysbios_BIOS_rtsUnlock__I                                              
0000b67d  ti_sysbios_knl_Swi_or__E                                                  
0000b695  ti_sysbios_rom_cortexm_cc13xx_CC13xx_checkRevision__E                     
0000b6ad  ti_uia_loggers_LoggerStopMode_Handle__label__S                            
0000b6c5  xdc_runtime_Error_init__E                                                 
0000b6dd  xgReadByte                                                                
0000b6f5  List_remove                                                               
0000b70b  NOROM_ThisLibraryIsFor_CC13x0_HwRev20AndLater_HaltIfViolated              
0000b737  strcpy                                                                    
0000b74d  ti_sysbios_BIOS_exitFunc__I                                               
0000b7bb  ti_uia_loggers_LoggerStopMode_disable__E                                  
0000b7d1  ti_uia_loggers_LoggerStopMode_enable__E                                   
0000b7e9  NOROM_AONRTCCurrent64BitValueGet                                          
0000b7fd  NOROM_AUXADCValueToMicrovolts                                             
0000b811  PIN_getOutputValue                                                        
0000b825  PWM_Params_init                                                           
0000b839  RF_Params_init                                                            
0000b84d  _register_unlock                                                          
0000b853  _register_lock                                                            
0000b85b  _nop                                                                      
0000b861  strlen                                                                    
0000b875  ti_sysbios_knl_Clock_doTick__I                                            
0000b889  RingBuf_construct                                                         
0000b89b  SemaphoreP_pend                                                           
0000b8ad  xdc_runtime_Startup_exec__I                                               
0000b8bf  ClockP_isActive                                                           
0000b8cf  HwiP_Params_init                                                          
0000b8df  ti_sysbios_BIOS_linkedWithIncorrectBootLibrary__E                         
0000b8e1  I2C_Params_init                                                           
0000b8f1  NOROM_AUXADCFlushFifo                                                     
0000b901  NOROM_AUXADCReadFifo                                                      
0000b911  NOROM_RFCRfTrimSet                                                        
0000b921  NOROM_SetupGetTrimForXoscHfFastStart                                      
0000b931  NOROM_SetupGetTrimForXoscHfIbiastherm                                     
0000b941  SwiP_Params_init                                                          
0000b951  WatchdogCC26XX_clear                                                      
0000b961  Watchdog_Params_init                                                      
0000b9d1  ti_sysbios_family_arm_m3_Hwi_post__E                                      
0000b9d1  ti_sysbios_hal_Hwi_HwiProxy_post__E                                       
0000b9d1  ti_sysbios_hal_Hwi_post__E                                                
0000b9e1  ti_uia_loggers_LoggerStopMode_Object__get__S                              
0000b9f1  ti_uia_loggers_LoggerStopMode_isEmpty__E                                  
0000ba11  NOROM_VIMSModeGet                                                         
0000ba1f  __TI_decompress_none                                                      
0000ba2d  ti_sysbios_family_arm_cc26xx_TimestampProvider_get32__E                   
0000ba2d  xdc_runtime_Timestamp_SupportProxy_get32__E__mangled__                    
0000ba3b  ti_sysbios_BIOS_nullFunc__I                                               
0000ba49  GPTimerCC26XX_Params_init                                                 
0000ba55  List_empty                                                                
0000ba61  NOROM_CPUcpsid                                                            
0000ba6d  NOROM_CPUcpsie                                                            
0000ba79  NOROM_OSC_HPOSCRelativeFrequencyOffsetToRFCoreFormatConvert               
0000ba85  PIN_registerIntCb                                                         
0000ba91  Power_getConstraintMask                                                   
0000ba9d  Power_getDependencyCount                                                  
0000baa9  __TI_zero_init                                                            
0000bac1  ti_sysbios_knl_Swi_getTrigger__E                                          
0000bacd  xdc_runtime_Startup_reset__I                                              
0000bad9  xdc_runtime_Startup_rtsDone__E                                            
0000bae5  ADC_Params_init                                                           
0000baef  ADC_convert                                                               
0000baf9  ADC_convertToMicroVolts                                                   
0000bb03  I2CCC26XX_init                                                            
0000bb0d  I2C_transfer                                                              
0000bb17  PWM_setDuty                                                               
0000bb21  PWM_start                                                                 
0000bb2b  UART_control                                                              
0000bb35  UART_read                                                                 
0000bb3f  UART_write                                                                
0000bb49  Watchdog_clear                                                            
0000bb53  Watchdog_setReload                                                        
0000bb5d  ADCCC26XX_init                                                            
0000bb65  GPTimerCC26XX_setLoadValue                                                
0000bb6d  GPTimerCC26XX_setMatchValue                                               
0000bb7d  WatchdogCC26XX_init                                                       
0000bbbd  ADCCC26XX_control                                                         
0000bbc3  ClockP_Params_init                                                        
0000bbc9  I2CCC26XX_control                                                         
0000bbcf  NOROM_CPUdelay                                                            
0000bbd5  UARTCC26XX_readPolling                                                    
0000bbdb  UARTCC26XX_writePolling                                                   
0000bbe1  WatchdogCC26XX_control                                                    
0000bbed  ti_sysbios_family_arm_m3_Hwi_setFunc__E                                   
0000bbf7  ClockP_destruct                                                           
0000bbfb  ClockP_getCpuFreq                                                         
0000bbff  ClockP_getTimeout                                                         
0000bc03  ClockP_setTimeout                                                         
0000bc07  ClockP_start                                                              
0000bc0b  ClockP_stop                                                               
0000bc0f  HwiP_destruct                                                             
0000bc13  HwiP_disable                                                              
0000bc17  HwiP_disableInterrupt                                                     
0000bc1b  HwiP_enableInterrupt                                                      
0000bc1f  HwiP_plug                                                                 
0000bc23  HwiP_post                                                                 
0000bc27  HwiP_setFunc                                                              
0000bc2b  List_head                                                                 
0000bc2f  List_next                                                                 
0000bc37  SemaphoreP_destruct                                                       
0000bc3b  SemaphoreP_post                                                           
0000bc3f  SwiP_destruct                                                             
0000bc43  SwiP_disable                                                              
0000bc47  SwiP_getTrigger                                                           
0000bc4b  SwiP_or                                                                   
0000bc4f  SwiP_post                                                                 
0000bc57  __abort_execution                                                         
0000bc5b  ti_sysbios_family_arm_cc26xx_Timer_getCount64__E                          
0000bc5f  ti_sysbios_knl_Clock_isActive__E                                          
0000bc63  ti_uia_loggers_LoggerStopMode_getContents__E                              
0000bc67  ti_uia_loggers_LoggerStopMode_getFilterLevel__E                           
0000bc6b  ti_uia_loggers_LoggerStopMode_getInstanceId__E                            
0000bc6f  ti_uia_loggers_LoggerStopMode_getMaxLength__E                             
0000bc73  ti_uia_loggers_LoggerStopMode_getPriority__E                              
0000bc77  ti_uia_loggers_LoggerStopMode_getTransferType__E                          
0000bc7b  ti_sysbios_knl_Clock_triggerFunc__I                                       
0000bc7d  ti_sysbios_rom_cortexm_cc13xx_CC13xx_badRomRevision__E                    
0000bc7f  ti_uia_loggers_LoggerStopMode_setFilterLevel__E                           
0000bc81  ti_uia_loggers_LoggerStopMode_setPriority__E                              
0000bc83  xdc_runtime_SysCallback_defaultAbort                                      
0000bc85  xdc_runtime_SysCallback_defaultExit                                       
000101fc  ADC_config                                                                
00010280  GPTimerCC26XX_config                                                      
000102e0  PWM_config                                                                
00010340  gptimerCC26xxHWAttrs                                                      
000103a0  ti_uia_loggers_LoggerStopMode_Module__FXNS__C                             
00010400  adcCC26xxHWAttrs                                                          
0001044d  rfPowerTableSize                                                          
0001044e  resourceDB                                                                
0001049a  ti_uia_loggers_LoggerStopMode_Module__id__C                               
00010524  rfPowerTable                                                              
00010564  BoardGpioInitTable                                                        
00010590  xdc_runtime_Startup_sfxnTab__A                                            
000105bc  UARTCC26XX_fxnTable                                                       
000105e4  ti_uia_loggers_LoggerStopMode_Object__PARAMS__C                           
00010630  UART_defaultParams                                                        
00010654  PWMTimerCC26XX_fxnTable                                                   
00010674  ti_uia_loggers_LoggerStopMode_Object__DESC__C                             
00010694  uartCC26XXHWAttrs                                                         
000106d0  WatchdogCC26XX_fxnTable                                                   
00010704  ADCCC26XX_fxnTable                                                        
0001071c  I2CCC26XX_fxnTable                                                        
00010734  PWM_defaultParams                                                         
0001074c  i2cCC26xxHWAttrs                                                          
0001077c  xdc_runtime_Startup_sfxnRts__A                                            
00010792  ti_uia_loggers_LoggerStopMode_isTimestampEnabled__C                       
00010794  I2C_defaultParams                                                         
000107a4  PowerCC26XX_config                                                        
000107b4  pwmtimerCC26xxHWAttrs                                                     
000107c4  I2C_config                                                                
000107d0  UART_config                                                               
000107dc  Watchdog_config                                                           
000107e8  Watchdog_defaultParams                                                    
000107f4  xdc_runtime_Startup_firstFxns__A                                          
00010800  ADCBuf_count                                                              
00010801  ADC_count                                                                 
00010802  Display_count                                                             
00010803  I2C_count                                                                 
00010804  NVS_count                                                                 
00010805  PWM_count                                                                 
00010806  SPI_count                                                                 
00010807  UART_count                                                                
00010808  Watchdog_count                                                            
0001080c  ADC_defaultParams                                                         
00010814  PINCC26XX_hwAttrs                                                         
00010824  watchdogCC26XXHWAttrs                                                     
00010830  RFCC26XX_hwAttrs                                                          
00010834  ti_sysbios_family_arm_m3_Hwi_swiDisable__C                                
00010838  ti_sysbios_family_arm_m3_Hwi_swiRestoreHwi__C                             
0001083c  ti_sysbios_heaps_HeapMem_primaryHeapBaseAddr__C                           
00010840  ti_sysbios_heaps_HeapMem_primaryHeapEndAddr__C                            
00010844  ti_sysbios_knl_Clock_tickPeriod__C                                        
00010848  ti_sysbios_knl_Clock_triggerClock__C                                      
0001084c  ti_sysbios_knl_Idle_funcList__A                                           
00010850  ti_uia_loggers_LoggerStopMode_Module__diagsEnabled__C                     
00010854  ti_uia_loggers_LoggerStopMode_Module__diagsIncluded__C                    
00010858  ti_uia_loggers_LoggerStopMode_Module__diagsMask__C                        
0001085c  ti_uia_loggers_LoggerStopMode_Object__count__C                            
00010860  ti_uia_runtime_ILoggerSnapshot_Interface__BASE__C                         
00010864  ti_uia_runtime_IUIATransfer_Interface__BASE__C                            
00010868  xdc_runtime_IFilterLogger_Interface__BASE__C                              
0001086c  xdc_runtime_ILogger_Interface__BASE__C                                    
00010870  xdc_runtime_SysMin_bufSize__C                                             
00010874  xdc_runtime_SysMin_outputFunc__C                                          
00010878  xdc_runtime_SysMin_flushAtExit__C                                         
0001087a  xdc_runtime_Text_charTab__A                                               
0001ffa8  __ccfg                                                                    
1001a001  ti_sysbios_knl_Semaphore_pend__E                                          
1001a0cd  ti_sysbios_knl_Mailbox_Instance_init__E                                   
1001a195  ti_sysbios_heaps_HeapMem_alloc__E                                         
1001a259  ti_sysbios_knl_Task_Instance_init__E                                      
1001a315  ti_sysbios_family_arm_m3_Hwi_postInit__I                                  
1001a3c5  ti_sysbios_family_arm_m3_Hwi_Instance_init__E                             
1001a465  ti_sysbios_family_arm_cc26xx_Timer_periodicStub__E                        
1001a4f9  ti_sysbios_knl_Task_Instance_finalize__E                                  
1001a58d  ti_sysbios_knl_Mailbox_post__E                                            
1001a611  ti_sysbios_knl_Task_postInit__I                                           
1001a695  ti_sysbios_family_arm_m3_Hwi_initNVIC__E                                  
1001a715  ti_sysbios_knl_Clock_startI__E                                            
1001a791  ti_sysbios_heaps_HeapMem_free__E                                          
1001a809  ti_sysbios_knl_Clock_walkQueueDynamic__E                                  
1001a881  ti_sysbios_knl_Clock_workFunc__E                                          
1001a8f9  ti_sysbios_knl_Mailbox_Instance_finalize__E                               
1001a969  ti_sysbios_knl_Mailbox_pend__E                                            
1001a9d9  ti_sysbios_knl_Task_sleep__E                                              
1001aa49  ti_sysbios_family_arm_m3_Hwi_dispatchC__I                                 
1001aab1  ti_sysbios_family_arm_m3_Hwi_Object__create__S                            
1001ab15  ti_sysbios_family_arm_m3_Hwi_create                                       
1001ab79  ti_sysbios_hal_Hwi_create                                                 
1001abdd  ti_sysbios_knl_Mailbox_create                                             
1001ac41  ti_sysbios_knl_Semaphore_post__E                                          
1001aca5  ti_sysbios_knl_Swi_Instance_init__E                                       
1001ad05  ti_sysbios_knl_Swi_create                                                 
1001ad61  ti_sysbios_knl_Swi_restoreHwi__E                                          
1001adbd  ti_sysbios_knl_Task_Module_startup__E                                     
1001ae19  ti_sysbios_knl_Task_create                                                
1001ae75  ti_sysbios_knl_Task_startCore__E                                          
1001aed1  ti_sysbios_family_arm_m3_Hwi_Instance_finalize__E                         
1001af29  ti_sysbios_family_arm_m3_Hwi_construct                                    
1001af81  ti_sysbios_knl_Mailbox_construct                                          
1001afd9  ti_sysbios_knl_Swi_run__I                                                 
1001b031  ti_sysbios_knl_Swi_schedule__I                                            
1001b085  ti_sysbios_knl_Swi_construct                                              
1001b0d5  ti_sysbios_knl_Swi_runLoop__I                                             
1001b125  ti_sysbios_knl_Task_construct                                             
1001b175  ti_sysbios_knl_Task_schedule__I                                           
1001b1c1  ti_sysbios_family_arm_m3_Hwi_Module_startup__E                            
1001b209  ti_sysbios_heaps_HeapMem_getStats__E                                      
1001b251  ti_sysbios_family_arm_m3_Hwi_disableInterrupt__E                          
1001b295  ti_sysbios_family_arm_m3_Hwi_enableInterrupt__E                           
1001b2d9  ti_sysbios_knl_Mailbox_Module_startup__E                                  
1001b31d  ti_sysbios_knl_Swi_post__E                                                
1001b361  ti_sysbios_knl_Task_allBlockedFunction__I                                 
1001b3a5  ti_sysbios_knl_Task_yield__E                                              
1001b3e9  ti_sysbios_knl_Clock_create                                               
1001b425  ti_sysbios_knl_Task_exit__E                                               
1001b45f  ti_sysbios_gates_GateHwi_Instance_init__E                                 
1001b461  ti_sysbios_family_arm_m3_Hwi_getStackInfo__E                              
1001b499  ti_sysbios_family_arm_m3_TaskSupport_start__E                             
1001b4d1  ti_sysbios_heaps_HeapMem_Instance_init__E                                 
1001b509  ti_sysbios_knl_Clock_Instance_init__E                                     
1001b541  ti_sysbios_heaps_HeapMem_init__I                                          
1001b575  ti_sysbios_knl_Clock_construct                                            
1001b5a9  ti_sysbios_knl_Semaphore_create                                           
1001b5dd  ti_sysbios_knl_Swi_restore__E                                             
1001b611  ti_sysbios_knl_Task_blockI__E                                             
1001b645  ti_sysbios_gates_GateMutex_Object__create__S                              
1001b675  ti_sysbios_gates_GateMutex_create                                         
1001b6a5  ti_sysbios_gates_GateMutex_enter__E                                       
1001b6d5  ti_sysbios_knl_Clock_getTicks__E                                          
1001b705  ti_sysbios_knl_Semaphore_construct                                        
1001b735  ti_sysbios_knl_Task_processVitalTaskFlag__I                               
1001b765  ti_sysbios_family_arm_cc26xx_Timer_postInit__I                            
1001b791  ti_sysbios_family_arm_cc26xx_Timer_startup__E                             
1001b791  ti_sysbios_knl_Clock_TimerProxy_startup__E                                
1001b7bd  ti_sysbios_family_arm_m3_Hwi_Object__get__S                               
1001b7e9  ti_sysbios_gates_GateMutex_construct                                      
1001b815  ti_sysbios_hal_Hwi_initStack                                              
1001b841  ti_sysbios_heaps_HeapMem_Object__create__S                                
1001b86d  ti_sysbios_heaps_HeapMem_Object__get__S                                   
1001b899  ti_sysbios_knl_Mailbox_Object__get__S                                     
1001b8c5  ti_sysbios_knl_Mailbox_postInit__I                                        
1001b8f1  ti_sysbios_knl_Queue_construct                                            
1001b91d  ti_sysbios_knl_Queue_create                                               
1001b949  ti_sysbios_knl_Semaphore_pendTimeout__I                                   
1001b975  ti_sysbios_knl_Swi_Object__get__S                                         
1001b9a1  ti_sysbios_knl_Task_unblockI__E                                           
1001b9cd  ti_sysbios_family_arm_cc26xx_TimestampProvider_get64__E                   
1001b9cd  xdc_runtime_Timestamp_SupportProxy_get64__E                               
1001b9cd  xdc_runtime_Timestamp_get64__E                                            
1001b9f5  ti_sysbios_hal_Hwi_Instance_init__E                                       
1001ba1d  ti_sysbios_knl_Clock_addI__E                                              
1001ba45  ti_sysbios_knl_Task_restore__E                                            
1001ba6d  ti_sysbios_family_arm_cc26xx_Timer_Module_startup__E                      
1001ba91  ti_sysbios_gates_GateHwi_Object__create__S                                
1001bab5  ti_sysbios_BIOS_RtsGateProxy_Object__delete__S                            
1001bab5  ti_sysbios_gates_GateMutex_Object__delete__S                              
1001bab5  ti_sysbios_heaps_HeapMem_Module_GateProxy_Object__delete__S               
1001bad9  ti_sysbios_knl_Clock_Object__delete__S                                    
1001bafd  ti_sysbios_knl_Semaphore_Instance_init__E                                 
1001bb21  ti_sysbios_knl_Semaphore_Object__delete__S                                
1001bb45  ti_sysbios_family_arm_cc26xx_Timer_Module__startupDone__S                 
1001bb65  ti_sysbios_family_arm_cc26xx_TimestampProvider_Module_startup__E          
1001bb85  ti_sysbios_family_arm_m3_Hwi_Module__startupDone__S                       
1001bba5  ti_sysbios_family_arm_m3_Hwi_Object__delete__S                            
1001bba5  ti_sysbios_hal_Hwi_HwiProxy_Object__delete__S                             
1001bbc5  ti_sysbios_family_arm_m3_Hwi_excHandler__I                                
1001bbe5  ti_sysbios_gates_GateHwi_Handle__label__S                                 
1001bbe5  xdc_runtime_System_Module_GateProxy_Handle__label__S                      
1001bc05  ti_sysbios_gates_GateHwi_Object__delete__S                                
1001bc05  xdc_runtime_System_Module_GateProxy_Object__delete__S                     
1001bc25  ti_sysbios_BIOS_RtsGateProxy_Handle__label__S                             
1001bc25  ti_sysbios_gates_GateMutex_Handle__label__S                               
1001bc25  ti_sysbios_heaps_HeapMem_Module_GateProxy_Handle__label__S                
1001bc45  ti_sysbios_gates_GateMutex_Object__destruct__S                            
1001bc65  ti_sysbios_hal_Hwi_Object__delete__S                                      
1001bc85  ti_sysbios_heaps_HeapMem_Handle__label__S                                 
1001bc85  xdc_runtime_Memory_HeapProxy_Handle__label__S                             
1001bca5  ti_sysbios_heaps_HeapMem_Object__delete__S                                
1001bca5  xdc_runtime_Memory_HeapProxy_Object__delete__S                            
1001bcc5  ti_sysbios_knl_Clock_Module_startup__E                                    
1001bce5  ti_sysbios_knl_Clock_Object__destruct__S                                  
1001bd05  ti_sysbios_knl_Idle_run__E                                                
1001bd25  ti_sysbios_knl_Mailbox_Object__delete__S                                  
1001bd45  ti_sysbios_knl_Queue_Object__delete__S                                    
1001bd65  ti_sysbios_knl_Queue_Object__get__S                                       
1001bd85  ti_sysbios_knl_Semaphore_Object__destruct__S                              
1001bda5  ti_sysbios_knl_Swi_Object__delete__S                                      
1001bdc5  ti_sysbios_knl_Task_Object__delete__S                                     
1001bde5  ti_sysbios_knl_Task_Object__get__S                                        
1001be05  ti_sysbios_knl_Task_enter__I                                              
1001be25  ti_sysbios_knl_Task_restoreHwi__E                                         
1001be45  ti_sysbios_hal_Hwi_HwiProxy_create                                        
1001be63  ti_sysbios_knl_Clock_logTick__E                                           
1001be65  ti_sysbios_family_arm_m3_Hwi_Object__destruct__S                          
1001be81  ti_sysbios_family_arm_m3_Hwi_setPriority__E                               
1001be9d  ti_sysbios_gates_GateMutex_Instance_init__E                               
1001beb9  ti_sysbios_knl_Clock_scheduleNextTick__E                                  
1001bed5  ti_sysbios_knl_Mailbox_Object__destruct__S                                
1001bef1  ti_sysbios_knl_Queue_Object__destruct__S                                  
1001bf0d  ti_sysbios_knl_Queue_get__E                                               
1001bf29  ti_sysbios_knl_Queue_put__E                                               
1001bf45  ti_sysbios_knl_Swi_Object__destruct__S                                    
1001bf61  ti_sysbios_knl_Task_Object__destruct__S                                   
1001bf7d  ti_sysbios_knl_Task_sleepTimeout__I                                       
1001bf97  ti_sysbios_knl_Swi_Instance_finalize__E                                   
1001bf99  ti_sysbios_gates_GateMutex_leave__E                                       
1001bfb1  ti_sysbios_knl_Task_unblock__E                                            
1001bfc9  ti_sysbios_knl_Clock_Instance_finalize__E                                 
1001bfdf  ti_sysbios_knl_Clock_start__E                                             
1001bff5  ti_sysbios_BIOS_getCpuFreq__E                                             
1001c009  ti_sysbios_family_arm_m3_Hwi_switchFromBootStack__E                       
1001c01d  ti_sysbios_hal_Hwi_Module_startup__E                                      
1001c031  ti_sysbios_BIOS_exit__E                                                   
1001c041  ti_sysbios_BIOS_setThreadType__E                                          
1001c051  ti_sysbios_BIOS_start__E                                                  
1001c061  ti_sysbios_family_arm_m3_Hwi_plug__E                                      
1001c071  ti_sysbios_gates_GateMutex_Instance_finalize__E                           
1001c081  ti_sysbios_hal_Hwi_HwiProxy_Object__create__S                             
1001c091  ti_sysbios_knl_Clock_TimerProxy_getCurrentTick__E                         
1001c0a1  ti_sysbios_knl_Clock_TimerProxy_getMaxTicks__E                            
1001c0b1  ti_sysbios_knl_Clock_TimerProxy_setNextTick__E                            
1001c0c1  ti_sysbios_knl_Semaphore_Instance_finalize__E                             
1001c0d1  ti_sysbios_knl_Swi_disable__E                                             
1001c0e1  ti_sysbios_knl_Swi_enabled__E                                             
1001c0f1  ti_sysbios_knl_Task_disable__E                                            
1001c101  ti_sysbios_heaps_HeapMem_restore__E                                       
1001c10f  ti_sysbios_knl_Queue_empty__E                                             
1001c11d  ti_sysbios_knl_Queue_remove__E                                            
1001c12b  ti_sysbios_family_arm_cc26xx_TimestampProvider_getFreq__E                 
1001c12b  xdc_runtime_Timestamp_SupportProxy_getFreq__E                             
1001c12b  xdc_runtime_Timestamp_getFreq__E                                          
1001c139  ti_sysbios_family_arm_m3_Hwi_Params__init__S                              
1001c139  ti_sysbios_hal_Hwi_HwiProxy_Params__init__S                               
1001c145  ti_sysbios_family_arm_m3_Hwi_disableFxn__E                                
1001c151  ti_sysbios_family_arm_m3_Hwi_enableFxn__E                                 
1001c15d  ti_sysbios_family_arm_m3_TaskSupport_getStackAlignment__E                 
1001c169  ti_sysbios_gates_GateHwi_enter__E                                         
1001c175  ti_sysbios_BIOS_RtsGateProxy_Params__init__S                              
1001c175  ti_sysbios_gates_GateMutex_Params__init__S                                
1001c175  ti_sysbios_heaps_HeapMem_Module_GateProxy_Params__init__S                 
1001c181  ti_sysbios_knl_Clock_Params__init__S                                      
1001c18d  ti_sysbios_knl_Clock_getTimerHandle__E                                    
1001c199  ti_sysbios_knl_Mailbox_Params__init__S                                    
1001c1a5  ti_sysbios_knl_Queue_dequeue__E                                           
1001c1b1  ti_sysbios_knl_Queue_enqueue__E                                           
1001c1bd  ti_sysbios_knl_Semaphore_Params__init__S                                  
1001c1c9  ti_sysbios_knl_Swi_Params__init__S                                        
1001c1d5  ti_sysbios_knl_Task_Params__init__S                                       
1001c1e1  ti_sysbios_knl_Task_self__E                                               
1001c1ed  ti_sysbios_hal_Hwi_Instance_finalize__E                                   
1001c1f7  ti_sysbios_family_arm_m3_Hwi_doSwiRestore__I                              
1001c1ff  ti_sysbios_family_arm_m3_Hwi_startup__E                                   
1001c207  ti_sysbios_knl_Idle_loop__E                                               
1001c20f  ti_sysbios_family_arm_m3_Hwi_doTaskRestore__I                             
1001c215  ti_sysbios_family_arm_m3_Hwi_restoreFxn__E                                
1001c21b  ti_sysbios_gates_GateHwi_leave__E                                         
1001c227  ti_sysbios_knl_Queue_Instance_init__E                                     
1001c22d  ti_sysbios_knl_Queue_elemClear__E                                         
1001c233  ti_sysbios_knl_Swi_Module_startup__E                                      
1001c239  ti_sysbios_knl_Swi_startup__E                                             
1001c23f  ti_sysbios_knl_Task_enable__E                                             
1001c245  ti_sysbios_BIOS_RtsGateProxy_enter__E                                     
1001c249  ti_sysbios_BIOS_RtsGateProxy_leave__E                                     
1001c24d  ti_sysbios_family_arm_cc26xx_Timer_getExpiredTicks__E                     
1001c251  ti_sysbios_family_arm_cc26xx_Timer_getPeriod__E                           
1001c255  ti_sysbios_family_arm_cc26xx_Timer_setPeriod__E                           
1001c259  ti_sysbios_family_arm_m3_Hwi_delete                                       
1001c25d  ti_sysbios_family_arm_m3_Hwi_destruct                                     
1001c261  ti_sysbios_family_arm_m3_TaskSupport_Module__startupDone__S               
1001c265  ti_sysbios_gates_GateHwi_query__E                                         
1001c265  xdc_runtime_System_Module_GateProxy_query__E                              
1001c269  ti_sysbios_gates_GateMutex_delete                                         
1001c26d  ti_sysbios_gates_GateMutex_destruct                                       
1001c271  ti_sysbios_BIOS_RtsGateProxy_query__E                                     
1001c271  ti_sysbios_gates_GateMutex_query__E                                       
1001c271  ti_sysbios_heaps_HeapMem_Module_GateProxy_query__E                        
1001c275  ti_sysbios_hal_Hwi_HwiProxy_Module__startupDone__S                        
1001c279  ti_sysbios_hal_Hwi_HwiProxy_delete                                        
1001c27d  ti_sysbios_hal_Hwi_HwiProxy_disableInterrupt__E                           
1001c27d  ti_sysbios_hal_Hwi_disableInterrupt__E                                    
1001c281  ti_sysbios_hal_Hwi_HwiProxy_enableInterrupt__E                            
1001c281  ti_sysbios_hal_Hwi_enableInterrupt__E                                     
1001c285  ti_sysbios_hal_Hwi_HwiProxy_getStackInfo__E                               
1001c285  ti_sysbios_hal_Hwi_getStackInfo__E                                        
1001c289  ti_sysbios_hal_Hwi_HwiProxy_startup__E                                    
1001c289  ti_sysbios_hal_Hwi_startup__E                                             
1001c28d  ti_sysbios_hal_Hwi_HwiProxy_switchFromBootStack__E                        
1001c291  ti_sysbios_hal_Hwi_delete                                                 
1001c295  ti_sysbios_hal_Hwi_switchFromBootStack__E                                 
1001c299  ti_sysbios_heaps_HeapMem_Module_GateProxy_enter__E                        
1001c29d  ti_sysbios_heaps_HeapMem_Module_GateProxy_leave__E                        
1001c2a1  ti_sysbios_heaps_HeapMem_isBlocking__E                                    
1001c2a5  ti_sysbios_knl_Clock_TimerProxy_Module__startupDone__S                    
1001c2a9  ti_sysbios_knl_Clock_TimerProxy_getExpiredTicks__E                        
1001c2ad  ti_sysbios_knl_Clock_TimerProxy_getPeriod__E                              
1001c2b1  ti_sysbios_knl_Clock_delete                                               
1001c2b5  ti_sysbios_knl_Clock_destruct                                             
1001c2b9  ti_sysbios_knl_Clock_removeI__E                                           
1001c2bd  ti_sysbios_knl_Clock_setTimeout__E                                        
1001c2c1  ti_sysbios_knl_Mailbox_delete                                             
1001c2c5  ti_sysbios_knl_Mailbox_destruct                                           
1001c2c9  ti_sysbios_knl_Queue_delete                                               
1001c2cd  ti_sysbios_knl_Queue_destruct                                             
1001c2d1  ti_sysbios_knl_Queue_head__E                                              
1001c2d5  ti_sysbios_knl_Queue_next__E                                              
1001c2d9  ti_sysbios_knl_Semaphore_delete                                           
1001c2dd  ti_sysbios_knl_Semaphore_destruct                                         
1001c2e1  ti_sysbios_knl_Swi_delete                                                 
1001c2e5  ti_sysbios_knl_Swi_destruct                                               
1001c2e9  ti_sysbios_knl_Swi_postInit__I                                            
1001c2ed  ti_sysbios_knl_Task_SupportProxy_Module__startupDone__S                   
1001c2f1  ti_sysbios_knl_Task_SupportProxy_getStackAlignment__E                     
1001c2f5  ti_sysbios_knl_Task_SupportProxy_start__E                                 
1001c2f9  ti_sysbios_knl_Task_SupportProxy_swap__E                                  
1001c2fd  ti_sysbios_knl_Task_delete                                                
1001c301  ti_sysbios_knl_Task_destruct                                              
1001c305  ti_sysbios_knl_Task_startup__E                                            
1001c309  xdc_runtime_Startup_startMods__I                                          
1001c401  xdc_runtime_Core_createObject__I                                          
1001c483  xdc_runtime_Error_policySpin__E                                           
1001c485  xdc_runtime_Memory_alloc__E                                               
1001c4f5  xdc_runtime_Core_deleteObject__I                                          
1001c555  xdc_runtime_Startup_exec__E                                               
1001c5a5  xdc_runtime_Assert_raise__I                                               
1001c5ed  xdc_runtime_Core_assignParams__I                                          
1001c635  xdc_runtime_Core_constructObject__I                                       
1001c67d  xdc_runtime_System_atexit__E                                              
1001c6b5  xdc_runtime_System_processAtExit__E                                       
1001c6e9  xdc_runtime_Core_assignLabel__I                                           
1001c719  xdc_runtime_Text_cordText__E                                              
1001c745  xdc_runtime_System_abort__E                                               
1001c765  xdc_runtime_Error_raiseX__E                                               
1001c781  xdc_runtime_Memory_valloc__E                                              
1001c79d  xdc_runtime_Core_destructObject__I                                        
1001c7b5  xdc_runtime_Error_check__E                                                
1001c7cd  xdc_runtime_System_exit__E                                                
1001c7e5  xdc_runtime_Text_ropeText__E                                              
1001c7fd  xdc_runtime_Memory_free__E                                                
1001c80d  xdc_runtime_SysCallback_abort__E                                          
1001c81d  xdc_runtime_SysCallback_exit__E                                           
1001c82d  xdc_runtime_Timestamp_SupportProxy_get32__E                               
1001c82d  xdc_runtime_Timestamp_get32__E                                            
1001c849  xdc_runtime_Memory_calloc__E                                              
1001c855  xdc_runtime_Memory_getMaxDefaultTypeAlign__E                              
1001c875  xdc_runtime_Gate_leaveSystem__E                                           
1001c87b  xdc_runtime_System_Module_startup__E                                      
1001c881  xdc_runtime_Gate_enterSystem__E                                           
1001c885  xdc_runtime_Memory_HeapProxy_alloc__E                                     
1001c889  xdc_runtime_Memory_HeapProxy_free__E                                      
1001c88d  xdc_runtime_System_Module_GateProxy_enter__E                              
1001c891  xdc_runtime_System_Module_GateProxy_leave__E                              
1001c895  xdc_runtime_System_abortSpin__E                                           
1001c897  xdc_runtime_System_exitSpin__E                                            
1001c899  ti_sysbios_family_arm_m3_Hwi_dispatch__I                                  
1001c969  ti_sysbios_family_arm_m3_TaskSupport_buildTaskStack                       
1001c9b5  ti_sysbios_family_arm_m3_Hwi_initStacks__E                                
1001c9fd  ti_sysbios_family_arm_m3_Hwi_excHandlerAsm__I                             
1001ca1d  ti_sysbios_family_xxx_Hwi_switchAndRunFunc                                
1001ca3b  ti_sysbios_family_arm_m3_Hwi_pendSV__I                                    
1001ca53  ti_sysbios_family_arm_m3_Hwi_return                                       
1001ca55  ti_sysbios_family_arm_m3_TaskSupport_glue                                 
1001ca65  ti_sysbios_family_arm_m3_TaskSupport_swap__E                              
1001ca6d  ti_sysbios_knl_Task_swapReturn                                            
1001ca97  ti_sysbios_rom_cortexm_cc13xx_CC13xx_getRevision__E                       
20000000  ti_sysbios_family_arm_m3_Hwi_ramVectors                                   
20000100  ti_sysbios_knl_Task_Module__state__V                                      
20000144  ti_sysbios_family_arm_m3_Hwi_Module__state__V                             
20000178  ti_sysbios_knl_Clock_Module__state__V                                     
200001a4  ti_sysbios_BIOS_Module__state__V                                          
200001c8  ti_sysbios_knl_Swi_Module__state__V                                       
200001e4  ti_sysbios_family_arm_cc26xx_Timer_Module__state__V                       
200001ec  ti_sysbios_family_arm_cc26xx_TimestampProvider_Module__state__V           
200001f0  xdc_runtime_Startup_Module__state__V                                      
200001f8  xdc_runtime_System_Module__state__V                                       
20000200  xdc_runtime_Memory_Module__state__V                                       
20000680  ti_uia_loggers_LoggerStopMode_Instance_State_0_packetArray__A             
20000a80  ti_uia_loggers_LoggerStopMode_Instance_State_1_packetArray__A             
2000140c  xdc_runtime_SysMin_Module_State_0_outbuf__A                               
2000206c  uartCC26XXObjects                                                         
20002198  __CIOBUF_                                                                 
200022b8  gptimerCC26XXObjects                                                      
200023d8  PIN_NumPins                                                               
2000246c  PIN_HandleTable                                                           
200024e8  pwmtimerCC26xxObjects                                                     
200025e8  i2cCC26xxObjects                                                          
200026c8  adcCC26xxObjects                                                          
200027a4  ClockP_tickPeriod                                                         
20002870  ti_sysbios_family_arm_m3_Hwi_dispatchTable                                
20002af4  accelTask                                                                 
20002b44  adcTask                                                                   
20002b94  gpsTask                                                                   
20002be4  gyroTask                                                                  
20002c34  magTask                                                                   
20002c84  pwmTask                                                                   
20002cd4  rxBeaconTask                                                              
20002d24  rxRestartTask                                                             
20002d74  txDataTask                                                                
20002e00  ti_uia_loggers_LoggerStopMode_Instance_State_0_hdr__A                     
20002e80  ti_uia_loggers_LoggerStopMode_Instance_State_1_hdr__A                     
20002eb0  watchdogCC26XXObjects                                                     
20002ed8  settings                                                                  
20002f00  clk0Struct                                                                
20002f24  uartParams                                                                
20003060  i2cTransaction                                                            
200030ac  pwmparams                                                                 
200030d8  Connections                                                               
2000310c  i2cParams                                                                 
20003128  aBias                                                                     
20003134  gBias                                                                     
20003140  mBias                                                                     
2000314c  PowerCC26XX_taskKey                                                       
20003150  PowerCC26XX_swiKey                                                        
2000316c  aBiasRaw                                                                  
20003174  gBiasRaw                                                                  
2000317c  mBiasRaw                                                                  
20003184  params                                                                    
2000318c  aRes                                                                      
20003190  adc0                                                                      
20003194  adc1                                                                      
20003198  adcValue0MicroVolt                                                        
2000319c  adcValue1MicroVolt                                                        
200031a0  gRes                                                                      
200031a4  i2c                                                                       
200031a8  mRes                                                                      
200031ac  uart                                                                      
200031b0  watchdogHandle                                                            
200031b6  adcValue0                                                                 
200031b8  adcValue1                                                                 
200031ba  ax                                                                        
200031bc  ay                                                                        
200031be  az                                                                        
200031c0  gx                                                                        
200031c2  gy                                                                        
200031c4  gz                                                                        
200031c6  mx                                                                        
200031c8  my                                                                        
200031ca  mz                                                                        
200031cc  _autoCalc                                                                 
200031cd  _mAddress                                                                 
200031ce  _xgAddress                                                                
200031cf  driverlib_release_0_48919                                                 
200031d0  __primary_heap_start__                                                    
200041d0  PowerCC26XX_module                                                        
200041d0  __primary_heap_end__                                                      
200042e4  globalPacket                                                              
2000437c  pOverrides_sl_lr                                                          
200043e4  ti_uia_loggers_LoggerStopMode_Object__table__V                            
2000444c  pOverrides_hsm                                                            
200044ac  pOverrides_lrm                                                            
20004508  pOverrides_ook                                                            
200045bc  pOverrides_fsk                                                            
20004614  main_func_sp                                                              
20004618  ti_sysbios_family_arm_cc26xx_Timer_Object__table__V                       
20004660  RF_pProp_fsk                                                              
20004664  RF_pProp_lrm                                                              
20004668  RF_pProp_ook                                                              
2000466c  RF_pProp_hsm                                                              
20004670  RF_pProp_sl_lr                                                            
20004674  RF_pProp_2_4G_fsk                                                         
20004678  RF_pCmdPropRadioDivSetup_fsk                                              
2000467c  RF_pCmdPropRadioDivSetup_lrm                                              
20004680  RF_pCmdPropRadioDivSetup_ook                                              
20004684  RF_pCmdRadioSetup_hsm                                                     
20004688  RF_pCmdPropRadioDivSetup_sl_lr                                            
2000468c  RF_pCmdPropRadioSetup_2_4G_fsk                                            
20004690  RF_pCmdTxHS                                                               
20004694  RF_pCmdRxHS                                                               
20004698  RF_pCmdFs_preDef                                                          
2000469c  RF_pCmdPropTx_preDef                                                      
200046a0  RF_pCmdPropRxAdv_preDef                                                   
200046a4  ti_sysbios_gates_GateMutex_Object__table__V                               
200046dc  RF_cmdPropRxAdv_preDef                                                    
2000470c  goodToGo                                                                  
20004710  pwmPeriod                                                                 
20004712  pwmduty                                                                   
20004714  pwmdutyInc                                                                
20004718  polarity                                                                  
2000471c  pwmtime                                                                   
20004720  pwm1                                                                      
20004724  pwm2                                                                      
20004728  bytesRead                                                                 
2000472c  numConnections                                                            
20004730  AXN                                                                       
20004734  AYN                                                                       
20004738  AZN                                                                       
2000473c  ti_sysbios_knl_Swi_Module_State_0_readyQ__A                               
2000476c  ti_sysbios_knl_Swi_Object__table__V                                       
2000479c  ti_sysbios_knl_Task_Module_State_0_readyQ__A                              
200047cc  RF_cmdPropRadioDivSetup                                                   
200047f4  RF_cmdPropRadioDivSetup_fsk                                               
2000481c  RF_cmdPropRadioDivSetup_lrm                                               
20004844  RF_cmdPropRadioDivSetup_ook                                               
2000486c  RF_cmdPropRadioDivSetup_sl_lr                                             
20004894  RF_cmdRxHS                                                                
200048d8  pinTable                                                                  
200048f8  ti_sysbios_knl_Clock_Object__table__V                                     
20004918  xdc_runtime_Error_IgnoreBlock                                             
20004938  RF_cmdFs                                                                  
20004950  RF_cmdFs_preDef                                                           
20004968  RF_cmdPropTx                                                              
20004980  RF_cmdPropTx_preDef                                                       
20004998  RF_cmdRadioSetup_hsm                                                      
200049c8  shapeovr                                                                  
200049e0  ti_sysbios_family_arm_m3_Hwi_Object__table__V                             
200049f8  ti_sysbios_heaps_HeapMem_Object__table__V                                 
20004a10  RF_cmdTxHS                                                                
20004a44  RF_prop                                                                   
20004a54  RF_prop_fsk                                                               
20004a64  RF_prop_hsm                                                               
20004a74  RF_prop_lrm                                                               
20004a84  RF_prop_ook                                                               
20004a94  RF_prop_sl_lr                                                             
20004ab2  ti_sysbios_family_arm_m3_Hwi_Module_State_0_excActive__A                  
20004ab4  __TI_cleanup_ptr                                                          
20004ab8  __TI_dtors_ptr                                                            
20004abc  __TI_enable_exit_profile_output                                           
20004ac0  ti_sysbios_knl_Task_Module__root__V                                       
20004acc  ti_uia_runtime_QueueDescriptor_Module__state__V                           
20004ad8  xdc_runtime_SysMin_Module__state__V                                       
20004ae4  _lock                                                                     
20004ae8  _unlock                                                                   
20004aec  ti_uia_runtime_QueueDescriptor_gPtrToFirstDescriptor                      
20004af0  ti_uia_runtime_QueueDescriptor_gUpdateCount                               
20004af4  ti_sysbios_family_arm_m3_Hwi_Module__root__V                              
20004afc  ti_sysbios_gates_GateHwi_Module__root__V                                  
20004b04  ti_sysbios_gates_GateMutex_Module__root__V                                
20004b0c  ti_sysbios_hal_Hwi_Module__root__V                                        
20004b14  ti_sysbios_heaps_HeapMem_Module__root__V                                  
20004b1c  ti_sysbios_knl_Clock_Module__root__V                                      
20004b24  ti_sysbios_knl_Mailbox_Module__root__V                                    
20004b2c  ti_sysbios_knl_Queue_Module__root__V                                      
20004b34  ti_sysbios_knl_Semaphore_Module__root__V                                  
20004b3c  ti_sysbios_knl_Swi_Module__root__V                                        
20004b44  ti_uia_loggers_LoggerStopMode_Module__root__V                             
20004b4c  xdc_runtime_System_Module_State_0_atexitHandlers__A                       
20004b54  ti_sysbios_family_arm_m3_Hwi_Module_State_0_excContext__A                 
20004b58  ti_sysbios_family_arm_m3_Hwi_Module_State_0_excStack__A                   
20004b5c  ti_sysbios_knl_Task_Module_State_0_idleTask__A                            
20004b60  xdc_runtime_Main_Module__root__V                                          
20004c00  __stack                                                                   
20005000  __STACK_END                                                               
e000e000  ti_sysbios_family_arm_m3_Hwi_nvic                                         
ffffffff  __TI_pprof_out_hndl                                                       
ffffffff  __TI_prof_data_size                                                       
ffffffff  __TI_prof_data_start                                                      
ffffffff  __binit__                                                                 
ffffffff  __c_args__                                                                
ffffffff  binit                                                                     
UNDEFED   ClockP_getSystemTicks                                                     
UNDEFED   HwiP_restore                                                              
UNDEFED   SHT$$INIT_ARRAY$$Base                                                     
UNDEFED   SHT$$INIT_ARRAY$$Limit                                                    
UNDEFED   SwiP_restore                                                              
UNDEFED   ti_sysbios_BIOS_RtsGateProxy_Handle__label__S__mangled__                  
UNDEFED   ti_sysbios_BIOS_RtsGateProxy_Params__init__S__mangled__                   
UNDEFED   ti_sysbios_BIOS_RtsGateProxy_query__E__mangled__                          
UNDEFED   ti_sysbios_hal_Hwi_HwiProxy_Module__startupDone__S__mangled__             
UNDEFED   ti_sysbios_hal_Hwi_HwiProxy_Params__init__S__mangled__                    
UNDEFED   ti_sysbios_hal_Hwi_HwiProxy_disableInterrupt__E__mangled__                
UNDEFED   ti_sysbios_hal_Hwi_HwiProxy_enableInterrupt__E__mangled__                 
UNDEFED   ti_sysbios_hal_Hwi_HwiProxy_getStackInfo__E__mangled__                    
UNDEFED   ti_sysbios_hal_Hwi_HwiProxy_startup__E__mangled__                         
UNDEFED   ti_sysbios_hal_Hwi_HwiProxy_switchFromBootStack__E__mangled__             
UNDEFED   ti_sysbios_hal_Hwi_disableInterrupt__E                                    
UNDEFED   ti_sysbios_hal_Hwi_enableInterrupt__E                                     
UNDEFED   ti_sysbios_hal_Hwi_getStackInfo__E                                        
UNDEFED   ti_sysbios_hal_Hwi_startup__E                                             
UNDEFED   ti_sysbios_hal_Hwi_switchFromBootStack__E                                 
UNDEFED   ti_sysbios_heaps_HeapMem_Module_GateProxy_Handle__label__S__mangled__     
UNDEFED   ti_sysbios_heaps_HeapMem_Module_GateProxy_Params__init__S__mangled__      
UNDEFED   ti_sysbios_heaps_HeapMem_Module_GateProxy_query__E__mangled__             
UNDEFED   ti_sysbios_knl_Clock_TimerProxy_Module__startupDone__S__mangled__         
UNDEFED   ti_sysbios_knl_Clock_TimerProxy_startup__E__mangled__                     
UNDEFED   ti_sysbios_knl_Task_SupportProxy_Module__startupDone__S__mangled__        
UNDEFED   ti_sysbios_knl_Task_SupportProxy_getStackAlignment__E__mangled__          
UNDEFED   ti_sysbios_knl_Task_SupportProxy_start__E__mangled__                      
UNDEFED   ti_sysbios_knl_Task_SupportProxy_swap__E__mangled__                       
UNDEFED   xdc_runtime_Main_Module_GateProxy_Handle__label__S                        
UNDEFED   xdc_runtime_Main_Module_GateProxy_query__E                                
UNDEFED   xdc_runtime_Memory_HeapProxy_Handle__label__S__mangled__                  
UNDEFED   xdc_runtime_System_Module_GateProxy_Handle__label__S__mangled__           
UNDEFED   xdc_runtime_System_Module_GateProxy_query__E__mangled__                   
UNDEFED   xdc_runtime_Timestamp_SupportProxy_get64__E__mangled__                    
UNDEFED   xdc_runtime_Timestamp_SupportProxy_getFreq__E__mangled__                  
UNDEFED   xdc_runtime_Timestamp_get32__E                                            
UNDEFED   xdc_runtime_Timestamp_get64__E                                            
UNDEFED   xdc_runtime_Timestamp_getFreq__E                                          

[1132 symbols]
