******************************************************************************
                  TI ARM Linker Unix v16.9.3                   
******************************************************************************
>> Linked Mon Sep 25 13:52:48 2017

OUTPUT FILE NAME:   <Sprite.out>
ENTRY POINT SYMBOL: "ResetISR"  address: 0000a59d


MEMORY CONFIGURATION

         name            origin    length      used     unused   attr    fill
----------------------  --------  ---------  --------  --------  ----  --------
  FLASH                 00000000   00020000  00012696  0000d96a  R  X
  SRAM                  20000000   00005000  00004ed6  0000012a  RW X


SEGMENT ALLOCATION MAP

run origin  load origin   length   init length attrs members
----------  ----------- ---------- ----------- ----- -------
00000000    00000000    00012640   00012640    r-x
  00000000    00000000    0000003c   0000003c    r-- .resetVecs
  0000003c    0000003c    0000d4d8   0000d4d8    r-x .text
  0000d514    0000d514    00004d42   00004d42    r-- .const
  00012258    00012258    000003e8   000003e8    r-- .cinit
0001ffa8    0001ffa8    00000058   00000058    r--
  0001ffa8    0001ffa8    00000058   00000058    r-- .ccfg
20000100    20000100    00002f5e   00000000    rw-
  20000100    20000100    00002f5e   00000000    rw- .bss
20003060    20003060    00001000   00000000    r--
  20003060    20003060    00001000   00000000    r-- .priheap
20004060    20004060    00000ab0   00000000    rw-
  20004060    20004060    00000ab0   00000000    rw- .data
20004c00    20004c00    00000400   00000000    rw-
  20004c00    20004c00    00000400   00000000    rw- .stack


SECTION ALLOCATION MAP

 output                                  attributes/
section   page    origin      length       input sections
--------  ----  ----------  ----------   ----------------
.text      0    0000003c    0000d4d8     
                  0000003c    0000044c     rf_multiMode_cc13x0.aem3 : RFCC26XX_multiMode.oem3 (.text:fsmActiveState)
                  00000488    000003c4     EasyLink.obj (.text:EasyLink_init)
                  0000084c    0000033c     sysbios.aem3 : BIOS.obj (.text:xdc_runtime_System_doPrint__I)
                  00000b88    00000324     rtsv7M3_T_le_eabi.lib : trgdrv.obj (.text)
                  00000eac    0000030c     drivers_cc13x0.aem3 : PowerCC26XX_calibrateRCOSC.oem3 (.text:PowerCC26XX_auxISR)
                  000011b8    00000248     rtsv7M3_T_le_eabi.lib : vla_alloc.obj (.text)
                  00001400    00000228     driverlib.lib : sys_ctrl.obj (.text:NOROM_SysCtrlSetRechargeBeforePowerDown)
                  00001628    0000021c     drivers_cc13x0.aem3 : PowerCC26XX.oem3 (.text:Power_sleep)
                  00001844    00000200     rf_multiMode_cc13x0.aem3 : RFCC26XX_multiMode.oem3 (.text:RF_open)
                  00001a44    000001f4     rtsv7M3_T_le_eabi.lib : ull_div_t2.obj (.text)
                  00001c38    000001e4     main.obj (.text:LSM9DS1init)
                  00001e1c    000001dc     hello_pem3.oem3 (.text:xdc_runtime_System_printfExtend__I)
                  00001ff8    000001b6     rtsv7M3_T_le_eabi.lib : fd_add_t2.obj (.text)
                  000021ae    00000002     display.aem3 : DisplayUart.oem3 (.text:DisplayUartMin_clear)
                  000021b0    000001a4     EasyLink.obj (.text:EasyLink_setRfPwr)
                  00002354    0000019c     rf_multiMode_cc13x0.aem3 : RFCC26XX_multiMode.oem3 (.text:fsmSetupState)
                  000024f0    00000190     drivers_cc13x0.aem3 : PowerCC26XX_calibrateRCOSC.oem3 (.text:PowerCC26XX_doCalibrate)
                  00002680    0000018c                         : PINCC26XX.oem3 (.text:PIN_init)
                  0000280c    00000188     EasyLink.obj (.text:rxDoneCallback)
                  00002994    00000180     main.obj (.text:initGyro)
                  00002b14    00000170     EasyLink.obj (.text:EasyLink_receiveAsync)
                  00002c84    00000164     drivers_cc13x0.aem3 : UARTCC26XX.oem3 (.text:UARTCC26XX_open)
                  00002de8    00000158     rf_multiMode_cc13x0.aem3 : RFCC26XX_multiMode.oem3 (.text:RF_postCmd)
                  00002f40    00000158     main.obj (.text:calibrate)
                  00003098    00000154     drivers_cc13x0.aem3 : I2CCC26XX.oem3 (.text:I2CCC26XX_open)
                  000031ec    00000154     rf_multiMode_cc13x0.aem3 : RFCC26XX_multiMode.oem3 (.text:radioOpDoneCb)
                  00003340    00000150                              : RFCC26XX_multiMode.oem3 (.text:abortCmd)
                  00003490    00000150     smartrf_settings_predefined.obj (.text:rf_patch_mce_genook)
                  000035e0    00000148     rf_multiMode_cc13x0.aem3 : RFCC26XX_multiMode.oem3 (.text:fsmChangePhyState)
                  00003728    0000013c     EasyLink.obj (.text:EasyLink_transmit)
                  00003864    00000138     hello_pem3.oem3 (.text:ti_uia_loggers_LoggerStopMode_writeMemoryRange__E)
                  0000399c    00000134     main.obj (.text:initAccel)
                  00003ad0    00000130     driverlib.lib : setup_rom.obj (.text:NOROM_SetupAfterColdResetWakeupFromShutDownCfg3)
                  00003c00    0000012c     drivers_cc13x0.aem3 : PowerCC26XX.oem3 (.text:Power_init)
                  00003d2c    0000012c     sysbios.aem3 : BIOS.obj (.text:ti_sysbios_knl_Semaphore_pend__E)
                  00003e58    00000128     smartrf_settings.obj (.text:rf_patch_rfe_genfsk)
                  00003f80    00000128     smartrf_settings_predefined.obj (.text:rf_patch_rfe_genfsk)
                  000040a8    00000128     smartrf_settings_predefined.obj (.text:rf_patch_rfe_lrm)
                  000041d0    00000128     smartrf_settings_predefined.obj (.text:rf_patch_rfe_sl_longrange)
                  000042f8    00000120     main.obj (.text:rxDoneCb)
                  00004418    0000011c     rf_multiMode_cc13x0.aem3 : RFCC26XX_multiMode.oem3 (.text:RF_close)
                  00004534    0000011c     main.obj (.text:semaphoreSetup)
                  00004650    00000118     drivers_cc13x0.aem3 : UARTCC26XX.oem3 (.text:UARTCC26XX_read)
                  00004768    00000118     main.obj (.text:initMag)
                  00004880    00000118     sysbios.aem3 : BIOS.obj (.text:ti_sysbios_family_arm_m3_Hwi_dispatchC__I)
                  00004998    00000114     smartrf_settings_predefined.obj (.text:rf_patch_mce_hsp_4mbps)
                  00004aac    00000110     drivers_cc13x0.aem3 : I2CCC26XX.oem3 (.text:I2CCC26XX_hwiFxn)
                  00004bbc    00000110     sysbios.aem3 : BIOS.obj (.text:ti_sysbios_knl_Swi_run__I)
                  00004ccc    0000010c     hello_pem3.oem3 (.text:ti_uia_loggers_LoggerStopMode_write8__E)
                  00004dd8    0000010a     drivers_cc13x0.aem3 : UARTCC26XX.oem3 (.text:UARTCC26XX_hwiIntFxn)
                  00004ee2    00000002     display.aem3 : DisplayUart.oem3 (.text:DisplayUartMin_clearLines)
                  00004ee4    00000108     rf_multiMode_cc13x0.aem3 : RFCC26XX_multiMode.oem3 (.text:fsmPowerUpState)
                  00004fec    00000108                              : RFCC26XX_multiMode.oem3 (.text:hwiFxnCpe0Active)
                  000050f4    000000fc     drivers_cc13x0.aem3 : UARTCC26XX.oem3 (.text:UARTCC26XX_write)
                  000051f0    000000fc     rtsv7M3_T_le_eabi.lib : fd_mul_t2.obj (.text)
                  000052ec    000000f8     sysbios.aem3 : BIOS.obj (.text:xdc_runtime_Startup_startMods__I)
                  000053e4    000000f4     hello_pem3.oem3 (.text:ti_uia_loggers_LoggerStopMode_write4__E)
                  000054d8    000000f0     driverlib.lib : setup_rom.obj (.text:NOROM_SetupAfterColdResetWakeupFromShutDownCfg2)
                  000055c8    000000e8     hello_pem3.oem3 (.text:ti_uia_loggers_LoggerStopMode_write1__E)
                  000056b0    000000e8     hello_pem3.oem3 (.text:ti_uia_loggers_LoggerStopMode_write2__E)
                  00005798    000000e0     main.obj (.text:txDataTaskFunc)
                  00005878    000000dc     driverlib.lib : rfc.obj (.text:NOROM_RFCOverrideUpdate)
                  00005954    000000dc     drivers_cc13x0.aem3 : PINCC26XX.oem3 (.text:PINCC26XX_setIoCfg)
                  00005a30    000000d8     EasyLink.obj (.text:EasyLink_enableRxAddrFilter)
                  00005b08    000000d8     smartrf_settings_predefined.obj (.text:rf_patch_rfe_genook)
                  00005be0    000000d8     smartrf_settings_predefined.obj (.text:rf_patch_rfe_hsp_4mbps)
                  00005cb8    000000d8     sysbios.aem3 : BIOS.obj (.text:ti_sysbios_knl_Clock_walkQueueDynamic__E)
                  00005d90    000000d8     hello_pem3.oem3 (.text:ti_uia_loggers_LoggerStopMode_write0__E)
                  00005e68    000000d4     driverlib.lib : rfc.obj (.text:NOROM_RFCRfTrimRead)
                  00005f3c    000000d0     dpl_cc13x0.aem3 : PowerCC26XX_tirtos.oem3 (.text:PowerCC26XX_standbyPolicy)
                  0000600c    000000cc     sysbios.aem3 : m3_Hwi_asm.obj (.text:ti_sysbios_family_arm_m3_Hwi_dispatch__I)
                  000060d8    000000c4     drivers_cc13x0.aem3 : ADCCC26XX.oem3 (.text:ADCCC26XX_convert)
                  0000619c    000000c4     driverlib.lib : setup.obj (.text:TrimAfterColdResetWakeupFromShutDown)
                  00006260    000000c4     smartrf_settings_predefined.obj (.text:rf_patch_mce_sl_longrange)
                  00006324    000000c4     main.obj (.text:rxBeaconFunc)
                  000063e8    000000c4     sysbios.aem3 : BIOS.obj (.text:ti_sysbios_knl_Task_Instance_init__E)
                  000064ac    000000c0     drivers_cc13x0.aem3 : I2CCC26XX.oem3 (.text:I2CCC26XX_transfer)
                  0000656c    000000c0     driverlib.lib : aux_adc.obj (.text:NOROM_AUXADCEnableSync)
                  0000662c    000000c0     sysbios.aem3 : BIOS.obj (.text:ti_sysbios_knl_Task_schedule__I)
                  000066ec    000000bc     main.obj (.text:I2CreadBytes)
                  000067a8    000000bc     drivers_cc13x0.aem3 : PowerCC26XX.oem3 (.text:Power_releaseDependency)
                  00006864    000000bc                         : UARTCC26XX.oem3 (.text:UARTCC26XX_initHw)
                  00006920    000000bc     sysbios.aem3 : BIOS.obj (.text:ti_sysbios_knl_Semaphore_post__E)
                  000069dc    000000b8     main.obj (.text:adc1TaskFunc)
                  00006a94    000000b8     sysbios.aem3 : BIOS.obj (.text:ti_sysbios_knl_Task_startCore__E)
                  00006b4c    000000b4     drivers_cc13x0.aem3 : PowerCC26XX.oem3 (.text:Power_setDependency)
                  00006c00    000000b4     main.obj (.text:getMagInitial)
                  00006cb4    000000b0     sysbios.aem3 : BIOS.obj (.text:ti_sysbios_knl_Task_yield__E)
                  00006d64    000000a8     driverlib.lib : setup.obj (.text:NOROM_SetupTrimDevice)
                  00006e0c    000000a8     sysbios.aem3 : BIOS.obj (.text:ti_sysbios_knl_Swi_post__E)
                  00006eb4    000000a4     driverlib.lib : setup_rom.obj (.text:NOROM_SetupAfterColdResetWakeupFromShutDownCfg1)
                  00006f58    000000a4     rf_multiMode_cc13x0.aem3 : RFCC26XX_multiMode.oem3 (.text:RF_dispatchCmd)
                  00006ffc    000000a0     auto_init.aem3 : auto_init.oem3 (.text)
                  0000709c    0000009e     sysbios.aem3 : BIOS.obj (.text:xdc_runtime_Text_putSite__E)
                  0000713a    00000002     display.aem3 : DisplayUart.oem3 (.text:DisplayUartMin_init)
                  0000713c    0000009c     rf_multiMode_cc13x0.aem3 : RFCC26XX_multiMode.oem3 (.text:RF_issueRadioFreeCb)
                  000071d8    0000009c     drivers_cc13x0.aem3 : WatchdogCC26XX.oem3 (.text:WatchdogCC26XX_open)
                  00007274    0000009c     rf_multiMode_cc13x0.aem3 : RFCC26XX_multiMode.oem3 (.text:hwiFxnCpe0PowerFsm)
                  00007310    0000009c     rtsv7M3_T_le_eabi.lib : memcpy_t2.obj (.text)
                  000073ac    0000009c     rf_multiMode_cc13x0.aem3 : RFCC26XX_multiMode.oem3 (.text:swiFxnHw)
                  00007448    00000098     drivers_cc13x0.aem3 : PINCC26XX.oem3 (.text:PIN_open)
                  000074e0    00000098                         : UARTCC26XX.oem3 (.text:UARTCC26XX_initIO)
                  00007578    00000098     sysbios.aem3 : BIOS.obj (.text:ti_sysbios_knl_Clock_workFuncDynamic__E)
                  00007610    00000098                  : BIOS.obj (.text:ti_sysbios_knl_Task_blockI__E)
                  000076a8    00000098                  : BIOS.obj (.text:xdc_runtime_Text_putMod__E)
                  00007740    00000094     EasyLink.obj (.text:EasyLink_abort)
                  000077d4    00000094     driverlib.lib : aux_adc.obj (.text:NOROM_AUXADCDisable)
                  00007868    00000094     main.obj (.text:readAccel)
                  000078fc    00000094     main.obj (.text:readGyro)
                  00007990    00000094     sysbios.aem3 : BIOS.obj (.text:ti_sysbios_knl_Task_Instance_finalize__E)
                  00007a24    00000094                  : BIOS.obj (.text:ti_sysbios_knl_Task_exit__E)
                  00007ab8    00000094     drivers_cc13x0.aem3 : UARTCC26XX.oem3 (.text:writeFinishedDoCallback)
                  00007b4c    00000092     rtsv7M3_T_le_eabi.lib : fs_div_t2.obj (.text)
                  00007bde    00000002     drivers_cc13x0.aem3 : WatchdogCC26XX.oem3 (.text:WatchdogCC26XX_close)
                  00007be0    00000090                         : I2CCC26XX.oem3 (.text:I2CCC26XX_cancel)
                  00007c70    00000090     ti.uia.loggers.aem3 : LoggerStopMode.oem3 (.text:ti_uia_loggers_LoggerStopMode_initQueueDescriptor__E)
                  00007d00    0000008c     drivers_cc13x0.aem3 : I2CCC26XX.oem3 (.text:I2CCC26XX_primeTransfer)
                  00007d8c    0000008c     rf_multiMode_cc13x0.aem3 : RFCC26XX_multiMode.oem3 (.text:RF_pendCmd)
                  00007e18    0000008c     drivers_cc13x0.aem3 : UARTCC26XX.oem3 (.text:UARTCC26XX_close)
                  00007ea4    0000008c                         : UARTCC26XX.oem3 (.text:UARTCC26XX_writeCancel)
                  00007f30    0000008c     sysbios.aem3 : BIOS.obj (.text:ti_sysbios_family_arm_m3_Hwi_Instance_init__E)
                  00007fbc    0000008c                  : BIOS.obj (.text:ti_sysbios_knl_Task_unblockI__E)
                  00008048    00000088     drivers_cc13x0.aem3 : ADCCC26XX.oem3 (.text:ADCCC26XX_open)
                  000080d0    00000088                         : PowerCC26XX.oem3 (.text:disableLFClockQualifiers)
                  00008158    00000086     rtsv7M3_T_le_eabi.lib : fd_cmp_t2.obj (.text:__aeabi_cdcmple)
                  000081de    00000086                           : fd_cmp_t2.obj (.text:__aeabi_cdrcmple)
                  00008264    00000084     drivers_cc13x0.aem3 : PowerCC26XX.oem3 (.text:switchXOSCHFclockFunc)
                  000082e8    00000080     sysbios.aem3 : BIOS.obj (.text:ti_sysbios_family_arm_m3_Hwi_initNVIC__E)
                  00008368    00000080                  : BIOS.obj (.text:ti_sysbios_knl_Task_postInit__I)
                  000083e8    0000007c     main.obj (.text:constrainScales)
                  00008464    0000007a     rtsv7M3_T_le_eabi.lib : fs_mul_t2.obj (.text)
                  000084de    0000007a                           : memset_t2.obj (.text)
                  00008558    00000078     main.obj (.text:LSM9DS1begin)
                  000085d0    00000078     drivers_cc13x0.aem3 : UARTCC26XX.oem3 (.text:writeTxFifoFlush)
                  00008648    00000074     driverlib.lib : setup_rom.obj (.text:NOROM_SetupSetVddrLevel)
                  000086bc    00000074     main.obj (.text:configInt)
                  00008730    00000074     sysbios.aem3 : BIOS.obj (.text:ti_sysbios_family_arm_cc26xx_Timer_start__E)
                  000087a4    00000074                  : BIOS.obj (.text:ti_sysbios_heaps_HeapMem_allocUnprotected__E)
                  00008818    00000074     ti.uia.runtime.aem3 : QueueDescriptor.oem3 (.text:ti_uia_runtime_QueueDescriptor_addToList__E)
                  0000888c    0000006e     sysbios.aem3 : BIOS.obj (.text:xdc_runtime_Core_createObject__I)
                  000088fa    00000002     rf_multiMode_cc13x0.aem3 : RFCC26XX_multiMode.oem3 (.text:defaultCallback)
                  000088fc    0000006d     sysbios.aem3 : BIOS.obj (.text:xdc_runtime_System_formatNum__I)
                  00008969    00000001     --HOLE-- [fill = 0]
                  0000896a    00000002     drivers_cc13x0.aem3 : PowerCC26XX.oem3 (.text:emptyClockFunc)
                  0000896c    0000006c                         : PowerCC26XX_calibrateRCOSC.oem3 (.text:PowerCC26XX_initiateCalibration)
                  000089d8    0000006c     sysbios.aem3 : BIOS.obj (.text:xdc_runtime_Memory_alloc__E)
                  00008a44    00000068     drivers_cc13x0.aem3 : I2CCC26XX.oem3 (.text:I2CCC26XX_close)
                  00008aac    00000068     main.obj (.text:I2CreadByte)
                  00008b14    00000068     main.obj (.text:I2CwriteByte)
                  00008b7c    00000068     driverlib.lib : setup_rom.obj (.text:NOROM_SetupGetTrimForAmpcompCtrl)
                  00008be4    00000068                   : setup_rom.obj (.text:NOROM_SetupGetTrimForAnabypassValue1)
                  00008c4c    00000068                   : sys_ctrl.obj (.text:NOROM_SysCtrl_DCDC_VoltageConditionalControl)
                  00008cb4    00000068     drivers_cc13x0.aem3 : UARTCC26XX.oem3 (.text:UARTCC26XX_readCancel)
                  00008d1c    00000068     rtsv7M3_T_le_eabi.lib : copy_decompress_lzss.obj (.text:decompress:lzss)
                  00008d84    00000068     rf_multiMode_cc13x0.aem3 : RFCC26XX_multiMode.oem3 (.text:flushPendCmd)
                  00008dec    00000068                              : RFCC26XX_multiMode.oem3 (.text:fsmXOSCState)
                  00008e54    00000068     rtsv7M3_T_le_eabi.lib : trgmsg.obj (.text)
                  00008ebc    00000068     sysbios.aem3 : BIOS.obj (.text:ti_sysbios_knl_Clock_startI__E)
                  00008f24    00000068                  : BIOS.obj (.text:ti_sysbios_knl_Swi_restoreHwi__E)
                  00008f8c    00000066     ti.uia.loggers.aem3 : LoggerStopMode.oem3 (.text:ti_uia_loggers_LoggerStopMode_flush__E)
                  00008ff2    00000066     sysbios.aem3 : BIOS.obj (.text:xdc_runtime_Core_deleteObject__I)
                  00009058    00000064     driverlib.lib : osc.obj (.text:NOROM_OSCHF_AttemptToSwitchToXosc)
                  000090bc    00000064     drivers_cc13x0.aem3 : PowerCC26XX.oem3 (.text:configureXOSCHF)
                  00009120    00000064     rf_multiMode_cc13x0.aem3 : RFCC26XX_multiMode.oem3 (.text:dispatchOpWhen)
                  00009184    00000064     main.obj (.text:main)
                  000091e8    00000064     sysbios.aem3 : BIOS.obj (.text:ti_sysbios_heaps_HeapMem_initPrimary__I)
                  0000924c    00000062     rf_multiMode_cc13x0.aem3 : RFCC26XX_multiMode.oem3 (.text:syncCb)
                  000092ae    00000002     smartrf_settings.obj (.text:enterGenfskSysPatch)
                  000092b0    00000060     driverlib.lib : osc.obj (.text:NOROM_OSCClockSourceSet)
                  00009310    00000060     drivers_cc13x0.aem3 : UARTCC26XX.oem3 (.text:UARTCC26XX_control)
                  00009370    00000060     smartrf_settings.obj (.text:configureGenfskPatch)
                  000093d0    00000060     smartrf_settings_predefined.obj (.text:configureGenfskPatch)
                  00009430    00000060     smartrf_settings_predefined.obj (.text:configureGenookPatch)
                  00009490    00000060     smartrf_settings_predefined.obj (.text:configureLrmPatch)
                  000094f0    00000060     smartrf_settings_predefined.obj (.text:configureSl_longrangePatch)
                  00009550    00000060     sysbios.aem3 : BIOS.obj (.text:ti_sysbios_knl_Clock_logTick__E)
                  000095b0    0000005c     display.aem3 : Display.oem3 (.text:Display_doOpen)
                  0000960c    0000005c     driverlib.lib : sys_ctrl.obj (.text:NOROM_SysCtrlAdjustRechargeAfterPowerDown)
                  00009668    0000005c     drivers_cc13x0.aem3 : PowerCC26XX_calibrateRCOSC.oem3 (.text:PowerCC26XX_RCOSC_clockFunc)
                  000096c4    0000005c                         : PowerCC26XX.oem3 (.text:PowerCC26XX_calibrate)
                  00009720    0000005c     main.obj (.text:createRFRXTasks)
                  0000977c    0000005c     rf_multiMode_cc13x0.aem3 : RFCC26XX_multiMode.oem3 (.text:ratChanFree)
                  000097d8    0000005c     sysbios.aem3 : BIOS.obj (.text:ti_sysbios_knl_Task_Module_startup__E)
                  00009834    0000005b                  : BIOS.obj (.text:xdc_runtime_Text_putLab__E)
                  0000988f    00000001     --HOLE-- [fill = 0]
                  00009890    00000058     drivers_cc13x0.aem3 : I2CCC26XX.oem3 (.text:I2CCC26XX_swiFxn)
                  000098e8    00000058                         : PINCC26XX.oem3 (.text:PIN_remove)
                  00009940    00000058     rf_multiMode_cc13x0.aem3 : RFCC26XX_multiMode.oem3 (.text:applyRfCorePatch)
                  00009998    00000058     sysbios.aem3 : BIOS.obj (.text:ti_sysbios_family_arm_m3_Hwi_postInit__I)
                  000099f0    00000058                  : BIOS.obj (.text:ti_sysbios_heaps_HeapMem_alloc__E)
                  00009a48    00000058                  : BIOS.obj (.text:ti_sysbios_heaps_HeapMem_freeUnprotected__E)
                  00009aa0    00000054     rf_multiMode_cc13x0.aem3 : RFCC26XX_multiMode.oem3 (.text:RF_getCurrentTime)
                  00009af4    00000054     main.obj (.text:calcaRes)
                  00009b48    00000054     main.obj (.text:calcmRes)
                  00009b9c    00000054     rf_multiMode_cc13x0.aem3 : RFCC26XX_multiMode.oem3 (.text:hwiFxnHw)
                  00009bf0    00000054     rtsv7M3_T_le_eabi.lib : exit.obj (.text)
                  00009c44    00000054     sysbios.aem3 : BIOS.obj (.text:ti_sysbios_knl_Swi_schedule__I)
                  00009c98    00000050     driverlib.lib : setup_rom.obj (.text:NOROM_SetupSetCacheModeAccordingToCcfgSetting)
                  00009ce8    00000050     main.obj (.text:readMag)
                  00009d38    00000050     drivers_cc13x0.aem3 : UARTCC26XX.oem3 (.text:startTxFifoEmptyClk)
                  00009d88    00000050     hello_pem3.oem3 (.text:ti_sysbios_family_arm_m3_Hwi_construct)
                  00009dd8    00000050     sysbios.aem3 : BIOS.obj (.text:ti_sysbios_knl_Swi_Instance_init__E)
                  00009e28    00000050                  : BIOS.obj (.text:ti_sysbios_knl_Swi_runLoop__I)
                  00009e78    00000050                  : BIOS.obj (.text:xdc_runtime_Startup_exec__E)
                  00009ec8    0000004c     drivers_cc13x0.aem3 : I2CCC26XX.oem3 (.text:I2CCC26XX_initHw)
                  00009f14    0000004c     rf_multiMode_cc13x0.aem3 : RFCC26XX_multiMode.oem3 (.text:RF_wakeupNotifyFxn)
                  00009f60    0000004c     rtsv7M3_T_le_eabi.lib : cpy_tbl.obj (.text)
                  00009fac    0000004c     sysbios.aem3 : m3_TaskSupport_asm.obj (.text:ti_sysbios_family_arm_m3_TaskSupport_buildTaskStack)
                  00009ff8    0000004c     hello_pem3.oem3 (.text:ti_sysbios_knl_Swi_construct)
                  0000a044    0000004c     hello_pem3.oem3 (.text:ti_sysbios_knl_Task_construct)
                  0000a090    0000004c     ti.uia.loggers.aem3 : LoggerStopMode.oem3 (.text:ti_uia_loggers_LoggerStopMode_Module_startup__E)
                  0000a0dc    0000004a     display.aem3 : DisplayUart.oem3 (.text:DisplayUartMin_open)
                  0000a126    00000002     smartrf_settings_predefined.obj (.text:enterGenfskSysPatch)
                  0000a128    00000048     dpl_cc13x0.aem3 : ClockP_tirtos.oem3 (.text:ClockP_construct)
                  0000a170    00000048     drivers_cc13x0.aem3 : PINCC26XX.oem3 (.text:PIN_setOutputEnable)
                  0000a1b8    00000048     main.obj (.text:calcgRes)
                  0000a200    00000048     main.obj (.text:clockSetup)
                  0000a248    00000048     main.obj (.text:pinCallback)
                  0000a290    00000048     rtsv7M3_T_le_eabi.lib : fd_toi_t2.obj (.text)
                  0000a2d8    00000048     sysbios.aem3 : BIOS.obj (.text:ti_sysbios_family_arm_m3_Hwi_Module_startup__E)
                  0000a320    00000048                  : m3_Hwi_asm_switch.obj (.text:ti_sysbios_family_arm_m3_Hwi_initStacks__E)
                  0000a368    00000048                  : BIOS.obj (.text:ti_sysbios_heaps_HeapMem_getStats__E)
                  0000a3b0    00000048                  : BIOS.obj (.text:xdc_runtime_Assert_raise__I)
                  0000a3f8    00000048                  : BIOS.obj (.text:xdc_runtime_Core_assignParams__I)
                  0000a440    00000048                  : BIOS.obj (.text:xdc_runtime_Core_constructObject__I)
                  0000a488    00000046     display.aem3 : DisplayUart.oem3 (.text:DisplayUartMin_vprintf)
                  0000a4ce    00000002     smartrf_settings_predefined.obj (.text:enterGenookSysPatch)
                  0000a4d0    00000044     drivers_cc13x0.aem3 : PINCC26XX.oem3 (.text:PIN_swi)
                  0000a514    00000044     rf_multiMode_cc13x0.aem3 : RFCC26XX_multiMode.oem3 (.text:RF_releasePowerConstraint)
                  0000a558    00000044     drivers_cc13x0.aem3 : RingBuf.oem3 (.text:RingBuf_put)
                  0000a59c    00000044     boot.aem3 : boot.oem3 (.text)
                  0000a5e0    00000044     main.obj (.text:initializationTaskFunc)
                  0000a624    00000044     drivers_cc13x0.aem3 : PowerCC26XX.oem3 (.text:notify)
                  0000a668    00000044     rtsv7M3_T_le_eabi.lib : fd_tou_t2.obj (.text)
                  0000a6ac    00000044     sysbios.aem3 : BIOS.obj (.text:ti_sysbios_family_arm_m3_Hwi_disableInterrupt__E)
                  0000a6f0    00000044                  : BIOS.obj (.text:ti_sysbios_family_arm_m3_Hwi_enableInterrupt__E)
                  0000a734    00000044                  : BIOS.obj (.text:ti_sysbios_knl_Task_allBlockedFunction__I)
                  0000a778    00000044     ti.uia.loggers.aem3 : LoggerStopMode.oem3 (.text:ti_uia_loggers_LoggerStopMode_initBuffer__I)
                  0000a7bc    00000044     sysbios.aem3 : BIOS.obj (.text:xdc_runtime_SysMin_flush__E)
                  0000a800    00000044                  : BIOS.obj (.text:xdc_runtime_Text_xprintf__I)
                  0000a844    00000040     drivers_cc13x0.aem3 : ADCCC26XX.oem3 (.text:ADCCC26XX_convertToMicroVolts)
                  0000a884    00000040                         : ADC.oem3 (.text:ADC_init)
                  0000a8c4    00000040                         : ADC.oem3 (.text:ADC_open)
                  0000a904    00000040     dpl_cc13x0.aem3 : HwiP_tirtos.oem3 (.text:HwiP_construct)
                  0000a944    00000040     drivers_cc13x0.aem3 : I2C.oem3 (.text:I2C_init)
                  0000a984    00000040                         : I2C.oem3 (.text:I2C_open)
                  0000a9c4    00000040                         : UART.oem3 (.text:UART_init)
                  0000aa04    00000040                         : UART.oem3 (.text:UART_open)
                  0000aa44    00000040                         : Watchdog.oem3 (.text:Watchdog_init)
                  0000aa84    00000040                         : Watchdog.oem3 (.text:Watchdog_open)
                  0000aac4    00000040     main.obj (.text:accelTaskFunc)
                  0000ab04    00000040     main.obj (.text:gyroTaskFunc)
                  0000ab44    00000040     main.obj (.text:magTaskFunc)
                  0000ab84    00000040     rtsv7M3_T_le_eabi.lib : u_divt2.obj (.text)
                  0000abc4    00000040     sysbios.aem3 : BIOS.obj (.text:ti_sysbios_family_arm_cc26xx_Timer_setThreshold__I)
                  0000ac04    00000040                  : BIOS.obj (.text:ti_sysbios_family_arm_m3_Hwi_getStackInfo__E)
                  0000ac44    0000003e     drivers_cc13x0.aem3 : RingBuf.oem3 (.text:RingBuf_get)
                  0000ac82    0000003e     hello_pem3.oem3 (.text:realloc)
                  0000acc0    0000003c     drivers_cc13x0.aem3 : ADCCC26XX.oem3 (.text:ADCCC26XX_close)
                  0000acfc    0000003c     driverlib.lib : chipinfo.obj (.text:NOROM_ChipInfo_GetHwRevision)
                  0000ad38    0000003c                   : osc.obj (.text:NOROM_OSC_HPOSCRelativeFrequencyOffsetGet)
                  0000ad74    0000003c                   : rfc.obj (.text:NOROM_RFCSynthPowerDown)
                  0000adb0    0000003c     drivers_cc13x0.aem3 : PowerCC26XX.oem3 (.text:PowerCC26XX_isStableXOSC_HF)
                  0000adec    0000003c                         : PowerCC26XX.oem3 (.text:PowerCC26XX_switchXOSC_HF)
                  0000ae28    0000003c     rf_multiMode_cc13x0.aem3 : RFCC26XX_multiMode.oem3 (.text:RF_runCmd)
                  0000ae64    0000003c     dpl_cc13x0.aem3 : SwiP_tirtos.oem3 (.text:SwiP_construct)
                  0000aea0    0000003c     main.obj (.text:calibrationTaskFunc)
                  0000aedc    0000003c     sysbios.aem3 : BIOS.obj (.text:ti_sysbios_family_arm_m3_Hwi_construct2__E)
                  0000af18    00000038     drivers_cc13x0.aem3 : PINCC26XX.oem3 (.text:PIN_setOutputValue)
                  0000af50    00000038     rf_multiMode_cc13x0.aem3 : RFCC26XX_multiMode.oem3 (.text:Q_end)
                  0000af88    00000038                              : RFCC26XX_multiMode.oem3 (.text:RF_checkCmdFsError)
                  0000afc0    00000038     drivers_cc13x0.aem3 : UARTCC26XX.oem3 (.text:UARTCC26XX_swiIntFxn)
                  0000aff8    00000038     main.obj (.text:createADC1Task)
                  0000b030    00000038     main.obj (.text:createAccelTask)
                  0000b068    00000038     main.obj (.text:createCalibrationTask)
                  0000b0a0    00000038     main.obj (.text:createGyroTask)
                  0000b0d8    00000038     main.obj (.text:createInitializationTask)
                  0000b110    00000038     main.obj (.text:createMagTask)
                  0000b148    00000038     main.obj (.text:createRFTXTasks)
                  0000b180    00000038     main.obj (.text:pinSetup)
                  0000b1b8    00000038     drivers_cc13x0.aem3 : UARTCC26XX.oem3 (.text:readData)
                  0000b1f0    00000038     rtsv7M3_T_le_eabi.lib : fs_tod_t2.obj (.text)
                  0000b228    00000038                           : fs_toi_t2.obj (.text)
                  0000b260    00000038                           : i_tofs_t2.obj (.text)
                  0000b298    00000038     sysbios.aem3 : BIOS.obj (.text:ti_sysbios_family_arm_cc26xx_Timer_getCurrentTick__E)
                  0000b2d0    00000038                  : BIOS.obj (.text:ti_sysbios_family_arm_m3_Hwi_Instance_finalize__E)
                  0000b308    00000038                  : BIOS.obj (.text:ti_sysbios_heaps_HeapMem_Instance_init__E)
                  0000b340    00000038                  : BIOS.obj (.text:ti_sysbios_knl_Clock_Instance_init__E)
                  0000b378    00000038     drivers_cc13x0.aem3 : UARTCC26XX.oem3 (.text:writeData)
                  0000b3b0    00000038     sysbios.aem3 : BIOS.obj (.text:xdc_runtime_SysMin_putch__E)
                  0000b3e8    00000038                  : BIOS.obj (.text:xdc_runtime_System_atexit__E)
                  0000b420    00000034     driverlib.lib : aux_adc.obj (.text:NOROM_AUXADCDisableInputScaling)
                  0000b454    00000034                   : osc.obj (.text:NOROM_OSCHF_SwitchToRcOscTurnOffXosc)
                  0000b488    00000034     drivers_cc13x0.aem3 : PINCC26XX.oem3 (.text:PIN_setConfig)
                  0000b4bc    00000034                         : PowerCC26XX.oem3 (.text:Power_releaseConstraint)
                  0000b4f0    00000034     rf_multiMode_cc13x0.aem3 : RFCC26XX_multiMode.oem3 (.text:Q_push)
                  0000b524    00000034     sysbios.aem3 : BIOS.obj (.text:ti_sysbios_family_arm_cc26xx_Timer_initDevice__I)
                  0000b558    00000034     hello_pem3.oem3 (.text:ti_sysbios_knl_Semaphore_create)
                  0000b58c    00000034     sysbios.aem3 : BIOS.obj (.text:ti_sysbios_knl_Swi_restore__E)
                  0000b5c0    00000034     ti.uia.loggers.aem3 : LoggerStopMode.oem3 (.text:ti_uia_loggers_LoggerStopMode_reset__E)
                  0000b5f4    00000034     main.obj (.text:wdtSetup)
                  0000b628    00000034     sysbios.aem3 : BIOS.obj (.text:xdc_runtime_Core_assignLabel__I)
                  0000b65c    00000032                  : BIOS.obj (.text:ti_sysbios_family_arm_cc26xx_Timer_setNextTick__E)
                  0000b68e    00000002     smartrf_settings_predefined.obj (.text:enterLrmSysPatch)
                  0000b690    00000030     driverlib.lib : chipinfo.obj (.text:NOROM_ChipInfo_GetChipType)
                  0000b6c0    00000030                   : setup_rom.obj (.text:NOROM_SetupSetAonRtcSubSecInc)
                  0000b6f0    00000030     drivers_cc13x0.aem3 : PowerCC26XX.oem3 (.text:Power_setConstraint)
                  0000b720    00000030     driverlib.lib : adi.obj (.text:SafeHapiAuxAdiSelect)
                  0000b750    00000030     drivers_cc13x0.aem3 : WatchdogCC26XX.oem3 (.text:WatchdogCC26XX_setReload)
                  0000b780    00000030     rf_multiMode_cc13x0.aem3 : RFCC26XX_multiMode.oem3 (.text:clkPowerUpFxn)
                  0000b7b0    00000030     main.obj (.text:initI2C)
                  0000b7e0    00000030     drivers_cc13x0.aem3 : UARTCC26XX.oem3 (.text:readData2RingBuf)
                  0000b810    00000030     hello_pem3.oem3 (.text:ti_sysbios_BIOS_atExitFunc__I)
                  0000b840    00000030     hello_pem3.oem3 (.text:ti_sysbios_BIOS_startFunc__I)
                  0000b870    00000030     hello_pem3.oem3 (.text:ti_sysbios_gates_GateHwi_Object__create__S)
                  0000b8a0    00000030     hello_pem3.oem3 (.text:ti_sysbios_gates_GateMutex_Object__create__S)
                  0000b8d0    00000030     sysbios.aem3 : BIOS.obj (.text:ti_sysbios_gates_GateMutex_enter__E)
                  0000b900    00000030     hello_pem3.oem3 (.text:ti_sysbios_heaps_HeapMem_Object__create__S)
                  0000b930    00000030     sysbios.aem3 : BIOS.obj (.text:ti_sysbios_heaps_HeapMem_free__E)
                  0000b960    00000030     hello_pem3.oem3 (.text:ti_sysbios_knl_Clock_construct)
                  0000b990    00000030     hello_pem3.oem3 (.text:ti_sysbios_knl_Semaphore_construct)
                  0000b9c0    00000030     sysbios.aem3 : BIOS.obj (.text:ti_sysbios_knl_Task_processVitalTaskFlag__I)
                  0000b9f0    00000030     hello_pem3.oem3 (.text:ti_uia_loggers_LoggerStopMode_Object__create__S)
                  0000ba20    00000030     sysbios.aem3 : BIOS.obj (.text:xdc_runtime_SysMin_abort__E)
                  0000ba50    00000030                  : BIOS.obj (.text:xdc_runtime_System_processAtExit__E)
                  0000ba80    0000002f                  : BIOS.obj (.text:xdc_runtime_Text_printVisFxn__I)
                  0000baaf    00000001     --HOLE-- [fill = 0]
                  0000bab0    0000002e     rtsv7M3_T_le_eabi.lib : i_tofd_t2.obj (.text)
                  0000bade    0000002e     sysbios.aem3 : BIOS.obj (.text:ti_sysbios_family_arm_m3_TaskSupport_start__E)
                  0000bb0c    0000002e                  : BIOS.obj (.text:ti_sysbios_hal_Hwi_initStack)
                  0000bb3a    0000002e     hello_pem3.oem3 (.text:ti_sysbios_rts_gnu_MemAlloc_alloc)
                  0000bb68    0000002c     driverlib.lib : ddi.obj (.text:NOROM_DDI32RegWrite)
                  0000bb94    0000002c                   : osc.obj (.text:NOROM_OSCClockSourceGet)
                  0000bbc0    0000002c                   : rfc.obj (.text:NOROM_RFCCPEPatchReset)
                  0000bbec    0000002c                   : setup_rom.obj (.text:NOROM_SetupGetTrimForRadcExtCfg)
                  0000bc18    0000002c     drivers_cc13x0.aem3 : PINCC26XX.oem3 (.text:PINCC26XX_setMux)
                  0000bc44    0000002c     dpl_cc13x0.aem3 : SemaphoreP_tirtos.oem3 (.text:SemaphoreP_constructBinary)
                  0000bc70    0000002c                     : SemaphoreP_tirtos.oem3 (.text:SemaphoreP_createBinary)
                  0000bc9c    0000002c     main.obj (.text:calcAccel)
                  0000bcc8    0000002c     rf_multiMode_cc13x0.aem3 : RFCC26XX_multiMode.oem3 (.text:getCmd)
                  0000bcf4    0000002c     sysbios.aem3 : BIOS.obj (.text:ti_sysbios_knl_Clock_getTicksUntilInterrupt__E)
                  0000bd20    0000002c     hello_pem3.oem3 (.text:ti_sysbios_knl_Queue_construct)
                  0000bd4c    0000002c     sysbios.aem3 : BIOS.obj (.text:ti_sysbios_knl_Semaphore_pendTimeout__I)
                  0000bd78    0000002c                  : BIOS.obj (.text:xdc_runtime_Text_cordText__E)
                  0000bda4    0000002a     display.aem3 : Display.oem3 (.text:Display_doPrintf)
                  0000bdce    0000002a     sysbios.aem3 : BIOS.obj (.text:ti_sysbios_knl_Clock_getTimeout__E)
                  0000bdf8    0000002a                  : BIOS.obj (.text:xdc_runtime_System_putchar__I)
                  0000be22    00000002     smartrf_settings_predefined.obj (.text:enterSl_longrangeSysPatch)
                  0000be24    00000028     display.aem3 : Display.oem3 (.text:Display_doInit)
                  0000be4c    00000028     driverlib.lib : aon_batmon.obj (.text:NOROM_AONBatMonTemperatureGetDegC)
                  0000be74    00000028     drivers_cc13x0.aem3 : PowerCC26XX.oem3 (.text:Power_registerNotify)
                  0000be9c    00000028     driverlib.lib : adi.obj (.text:SafeHapiVoid)
                  0000bec4    00000028     drivers_cc13x0.aem3 : WatchdogCC26XX.oem3 (.text:WatchdogCC26XX_convertMsToTicks)
                  0000beec    00000028     main.obj (.text:adc1Setup)
                  0000bf14    00000028     main.obj (.text:clk0Fxn)
                  0000bf3c    00000028     sysbios.aem3 : BIOS.obj (.text:ti_sysbios_knl_Clock_addI__E)
                  0000bf64    00000028                  : BIOS.obj (.text:ti_sysbios_knl_Task_restore__E)
                  0000bf8c    00000024     driverlib.lib : rfc.obj (.text:NOROM_RFCDoorbellSendTo)
                  0000bfb0    00000024     drivers_cc13x0.aem3 : PINCC26XX.oem3 (.text:PINCC26XX_getPinCount)
                  0000bfd4    00000024     rf_multiMode_cc13x0.aem3 : RFCC26XX_multiMode.oem3 (.text:allocCmd)
                  0000bff8    00000024     main.obj (.text:mReadBytes)
                  0000c01c    00000024     main.obj (.text:rxRestartFunc)
                  0000c040    00000024     hello_pem3.oem3 (.text:ti_sysbios_BIOS_registerRTSLock__I)
                  0000c064    00000024     hello_pem3.oem3 (.text:ti_sysbios_BIOS_removeRTSLock__I)
                  0000c088    00000024     sysbios.aem3 : BIOS.obj (.text:ti_sysbios_family_arm_cc26xx_Timer_Module_startup__E)
                  0000c0ac    00000024                  : BIOS.obj (.text:ti_sysbios_family_arm_cc26xx_Timer_getMaxTicks__E)
                  0000c0d0    00000024                  : BIOS.obj (.text:ti_sysbios_family_arm_cc26xx_Timer_startup__E)
                  0000c0f4    00000024     hello_pem3.oem3 (.text:ti_sysbios_gates_GateMutex_Object__delete__S)
                  0000c118    00000024     sysbios.aem3 : BIOS.obj (.text:ti_sysbios_knl_Semaphore_Instance_init__E)
                  0000c13c    00000024     hello_pem3.oem3 (.text:ti_sysbios_knl_Semaphore_Object__delete__S)
                  0000c160    00000024     sysbios.aem3 : BIOS.obj (.text:ti_sysbios_knl_Swi_Module_startup__E)
                  0000c184    00000024     main.obj (.text:xgReadBytes)
                  0000c1a8    00000022     drivers_cc13x0.aem3 : List.oem3 (.text:List_put)
                  0000c1ca    00000022     driverlib.lib : aux_adc.obj (.text:NOROM_AUXADCAdjustValueForGainAndOffset)
                  0000c1ec    00000022     sysbios.aem3 : BIOS.obj (.text:ti_sysbios_family_arm_cc26xx_Timer_postInit__I)
                  0000c20e    00000022     hello_pem3.oem3 (.text:xdc_runtime_SysMin_output__I)
                  0000c230    00000020     driverlib.lib : rfc.obj (.text:NOROM_RFCAdi3VcoLdoVoltageMode)
                  0000c250    00000020                   : setup_rom.obj (.text:NOROM_SetupGetTrimForXoscHfCtl)
                  0000c270    00000020     dpl_cc13x0.aem3 : PowerCC26XX_tirtos.oem3 (.text:PowerCC26XX_schedulerDisable)
                  0000c290    00000020                     : PowerCC26XX_tirtos.oem3 (.text:PowerCC26XX_schedulerRestore)
                  0000c2b0    00000020     drivers_cc13x0.aem3 : PowerCC26XX.oem3 (.text:Power_unregisterNotify)
                  0000c2d0    00000020     main.obj (.text:calcGyro)
                  0000c2f0    00000020     main.obj (.text:displaySetup)
                  0000c310    00000020     main.obj (.text:mWriteByte)
                  0000c330    00000020     hello_pem3.oem3 (.text:ti_sysbios_BIOS_rtsLock__I)
                  0000c350    00000020     sysbios.aem3 : BIOS.obj (.text:ti_sysbios_family_arm_cc26xx_Timer_dynamicStub__E)
                  0000c370    00000020                  : BIOS.obj (.text:ti_sysbios_family_arm_cc26xx_TimestampProvider_Module_startup__E)
                  0000c390    00000020                  : m3_Hwi_asm.obj (.text:ti_sysbios_family_arm_m3_Hwi_excHandlerAsm__I)
                  0000c3b0    00000020                  : BIOS.obj (.text:ti_sysbios_family_arm_m3_Hwi_excHandler__I)
                  0000c3d0    00000020     hello_pem3.oem3 (.text:ti_sysbios_gates_GateHwi_Object__delete__S)
                  0000c3f0    00000020     hello_pem3.oem3 (.text:ti_sysbios_heaps_HeapMem_Object__delete__S)
                  0000c410    00000020     sysbios.aem3 : BIOS.obj (.text:ti_sysbios_knl_Clock_Module_startup__E)
                  0000c430    00000020     hello_pem3.oem3 (.text:ti_sysbios_knl_Clock_destruct)
                  0000c450    00000020     sysbios.aem3 : BIOS.obj (.text:ti_sysbios_knl_Clock_getTicks__E)
                  0000c470    00000020                  : BIOS.obj (.text:ti_sysbios_knl_Clock_stop__E)
                  0000c490    00000020                  : BIOS.obj (.text:ti_sysbios_knl_Idle_run__E)
                  0000c4b0    00000020     hello_pem3.oem3 (.text:ti_sysbios_knl_Semaphore_destruct)
                  0000c4d0    00000020     sysbios.aem3 : BIOS.obj (.text:ti_sysbios_knl_Task_restoreHwi__E)
                  0000c4f0    00000020     hello_pem3.oem3 (.text:ti_uia_loggers_LoggerStopMode_Object__delete__S)
                  0000c510    00000020     sysbios.aem3 : BIOS.obj (.text:xdc_runtime_Registry_findById__E)
                  0000c530    00000020                  : BIOS.obj (.text:xdc_runtime_SysMin_Module_startup__E)
                  0000c550    00000020     main.obj (.text:xgWriteByte)
                  0000c570    0000001e     drivers_cc13x0.aem3 : PINCC26XX.oem3 (.text:PIN_close)
                  0000c58e    0000001e                         : PowerCC26XX.oem3 (.text:Power_getTransitionLatency)
                  0000c5ac    0000001e     sysbios.aem3 : m3_Hwi_asm_switch.obj (.text:ti_sysbios_family_xxx_Hwi_switchAndRunFunc)
                  0000c5ca    00000002     rtsv7M3_T_le_eabi.lib : i_div0.obj (.text)
                  0000c5cc    0000001c     driverlib.lib : aux_adc.obj (.text:NOROM_AUXADCGetAdjustmentGain)
                  0000c5e8    0000001c                   : chipinfo.obj (.text:NOROM_ChipInfo_GetChipFamily)
                  0000c604    0000001c                   : setup_rom.obj (.text:NOROM_SetupGetTrimForAmpcompTh2)
                  0000c620    0000001c                   : setup_rom.obj (.text:NOROM_SetupGetTrimForRcOscLfRtuneCtuneTrim)
                  0000c63c    0000001c     drivers_cc13x0.aem3 : PINCC26XX.oem3 (.text:PINCC26XX_setIoCfgMux)
                  0000c658    0000001c                         : PINCC26XX.oem3 (.text:PIN_hwi)
                  0000c674    0000001c     rf_multiMode_cc13x0.aem3 : RFCC26XX_multiMode.oem3 (.text:RF_setPowerConstraint)
                  0000c690    0000001c                              : RFCC26XX_multiMode.oem3 (.text:clkInactivityFxn)
                  0000c6ac    0000001c     smartrf_settings.obj (.text:enterGenfskCpePatch)
                  0000c6c8    0000001c     smartrf_settings_predefined.obj (.text:enterGenfskCpePatch)
                  0000c6e4    0000001c     smartrf_settings_predefined.obj (.text:enterGenookCpePatch)
                  0000c700    0000001c     smartrf_settings_predefined.obj (.text:enterLrmCpePatch)
                  0000c71c    0000001c     smartrf_settings_predefined.obj (.text:enterSl_longrangeCpePatch)
                  0000c738    0000001c     rf_multiMode_cc13x0.aem3 : RFCC26XX_multiMode.oem3 (.text:hwiFxnCpe0ChangePhy)
                  0000c754    0000001c     hello_pem3.oem3 (.text:ti_sysbios_family_arm_m3_Hwi_destruct)
                  0000c770    0000001c     sysbios.aem3 : BIOS.obj (.text:ti_sysbios_family_arm_m3_Hwi_setPriority__E)
                  0000c78c    0000001c                  : BIOS.obj (.text:ti_sysbios_gates_GateMutex_Instance_init__E)
                  0000c7a8    0000001c                  : BIOS.obj (.text:ti_sysbios_knl_Clock_scheduleNextTick__E)
                  0000c7c4    0000001c     hello_pem3.oem3 (.text:ti_sysbios_knl_Queue_destruct)
                  0000c7e0    0000001c     sysbios.aem3 : BIOS.obj (.text:ti_sysbios_knl_Queue_put__E)
                  0000c7fc    0000001c                  : BIOS.obj (.text:ti_sysbios_knl_Swi_construct2__E)
                  0000c818    0000001c     hello_pem3.oem3 (.text:ti_sysbios_knl_Swi_destruct)
                  0000c834    0000001c     sysbios.aem3 : BIOS.obj (.text:ti_sysbios_knl_Task_enter__I)
                  0000c850    0000001c     ti.uia.loggers.aem3 : LoggerStopMode.oem3 (.text:ti_uia_loggers_LoggerStopMode_Instance_init__E)
                  0000c86c    0000001c     sysbios.aem3 : BIOS.obj (.text:xdc_runtime_Error_check__E)
                  0000c888    0000001c                  : BIOS.obj (.text:xdc_runtime_Error_raiseX__E)
                  0000c8a4    0000001c                  : BIOS.obj (.text:xdc_runtime_Memory_valloc__E)
                  0000c8c0    0000001c                  : BIOS.obj (.text:xdc_runtime_SysMin_exit__E)
                  0000c8dc    0000001c                  : BIOS.obj (.text:xdc_runtime_System_abort__E)
                  0000c8f8    0000001a                  : m3_Hwi_asm.obj (.text:ti_sysbios_family_arm_m3_Hwi_pendSV__I)
                  0000c912    00000002                  : BIOS.obj (.text:ti_sysbios_BIOS_linkedWithIncorrectBootLibrary__E)
                  0000c914    00000018     CC1310_LAUNCHXL.obj (.text:CC1310_LAUNCHXL_initGeneral)
                  0000c92c    00000018     driverlib.lib : aon_rtc.obj (.text:NOROM_AONRTCCurrentCompareValueGet)
                  0000c944    00000018                   : aux_adc.obj (.text:NOROM_AUXADCGetAdjustmentOffset)
                  0000c95c    00000018                   : chipinfo.obj (.text:NOROM_ChipInfo_GetPackageType)
                  0000c974    00000018                   : osc.obj (.text:NOROM_OSCHF_TurnOnXosc)
                  0000c98c    00000018                   : rfc.obj (.text:NOROM_RFCCpeIntGetAndClear)
                  0000c9a4    00000018                   : setup_rom.obj (.text:NOROM_SetupGetTrimForAdcShModeEn)
                  0000c9bc    00000018                   : setup_rom.obj (.text:NOROM_SetupGetTrimForAdcShVbufEn)
                  0000c9d4    00000018                   : setup_rom.obj (.text:NOROM_SetupGetTrimForAmpcompTh1)
                  0000c9ec    00000018                   : setup_rom.obj (.text:NOROM_SetupGetTrimForDblrLoopFilterResetVoltage)
                  0000ca04    00000018                   : setup_rom.obj (.text:NOROM_SetupGetTrimForRcOscLfIBiasTrim)
                  0000ca1c    00000018                   : setup_rom.obj (.text:NOROM_SetupGetTrimForXoscLfRegulatorAndCmirrwrRatio)
                  0000ca34    00000018     drivers_cc13x0.aem3 : PowerCC26XX.oem3 (.text:Power_idleFunc)
                  0000ca4c    00000018                         : UARTCC26XX.oem3 (.text:UARTCC26XX_init)
                  0000ca64    00000018                         : UART.oem3 (.text:UART_Params_init)
                  0000ca7c    00000018                         : PowerCC26XX.oem3 (.text:configureRFCoreClocks)
                  0000ca94    00000018     hello_pem3.oem3 (.text:free)
                  0000caac    00000018     main.obj (.text:mReadByte)
                  0000cac4    00000018     rtsv7M3_T_le_eabi.lib : args_main.obj (.text)
                  0000cadc    00000018                           : ll_mul_t2.obj (.text)
                  0000caf4    00000018     rf_multiMode_cc13x0.aem3 : RFCC26XX_multiMode.oem3 (.text:swiFxnFsm)
                  0000cb0c    00000018     hello_pem3.oem3 (.text:ti_sysbios_BIOS_rtsUnlock__I)
                  0000cb24    00000018     hello_pem3.oem3 (.text:ti_sysbios_family_arm_cc26xx_Timer_Module__startupDone__F)
                  0000cb3c    00000018     sysbios.aem3 : BIOS.obj (.text:ti_sysbios_family_arm_cc26xx_TimestampProvider_get64__E)
                  0000cb54    00000018     hello_pem3.oem3 (.text:ti_sysbios_family_arm_m3_Hwi_Module__startupDone__F)
                  0000cb6c    00000018     sysbios.aem3 : BIOS.obj (.text:ti_sysbios_family_arm_m3_Hwi_plug__E)
                  0000cb84    00000018     hello_pem3.oem3 (.text:ti_sysbios_gates_GateHwi_Handle__label__S)
                  0000cb9c    00000018     hello_pem3.oem3 (.text:ti_sysbios_gates_GateMutex_Handle__label__S)
                  0000cbb4    00000018     sysbios.aem3 : BIOS.obj (.text:ti_sysbios_gates_GateMutex_leave__E)
                  0000cbcc    00000018     hello_pem3.oem3 (.text:ti_sysbios_heaps_HeapMem_Handle__label__S)
                  0000cbe4    00000018     sysbios.aem3 : BIOS.obj (.text:ti_sysbios_knl_Swi_or__E)
                  0000cbfc    00000018                  : BIOS.obj (.text:ti_sysbios_knl_Task_unblock__E)
                  0000cc14    00000018     hello_pem3.oem3 (.text:ti_uia_loggers_LoggerStopMode_Handle__label__S)
                  0000cc2c    00000018     sysbios.aem3 : BIOS.obj (.text:xdc_runtime_Error_init__E)
                  0000cc44    00000018                  : BIOS.obj (.text:xdc_runtime_System_exit__E)
                  0000cc5c    00000018                  : BIOS.obj (.text:xdc_runtime_Text_ropeText__E)
                  0000cc74    00000018     main.obj (.text:xgReadByte)
                  0000cc8c    00000016     display.aem3 : DisplayUart.oem3 (.text:DisplayUartMin_close)
                  0000cca2    00000016     drivers_cc13x0.aem3 : List.oem3 (.text:List_remove)
                  0000ccb8    00000016     driverlib.lib : chipinfo.obj (.text:NOROM_ThisLibraryIsFor_CC13x0_HwRev20AndLater_HaltIfViolated)
                  0000ccce    00000016     rf_multiMode_cc13x0.aem3 : RFCC26XX_multiMode.oem3 (.text:Q_pop)
                  0000cce4    00000016     rtsv7M3_T_le_eabi.lib : strcpy.obj (.text)
                  0000ccfa    00000016     hello_pem3.oem3 (.text:ti_sysbios_BIOS_exitFunc__I)
                  0000cd10    00000016     sysbios.aem3 : BIOS.obj (.text:ti_sysbios_knl_Clock_Instance_finalize__E)
                  0000cd26    00000016     main.obj (.text:ti_sysbios_knl_Clock_Params_init)
                  0000cd3c    00000016     sysbios.aem3 : BIOS.obj (.text:ti_sysbios_knl_Clock_start__E)
                  0000cd52    00000016     EasyLink.obj (.text:ti_sysbios_knl_Semaphore_Params_init)
                  0000cd68    00000016     main.obj (.text:ti_sysbios_knl_Task_Params_init)
                  0000cd7e    00000016     ti.uia.loggers.aem3 : LoggerStopMode.oem3 (.text:ti_uia_loggers_LoggerStopMode_disable__E)
                  0000cd94    00000016                         : LoggerStopMode.oem3 (.text:ti_uia_loggers_LoggerStopMode_enable__E)
                  0000cdaa    00000002     hello_pem3.oem3 (.text:ti_sysbios_BIOS_nullFunc__I)
                  0000cdac    00000014     driverlib.lib : aon_rtc.obj (.text:NOROM_AONRTCCurrent64BitValueGet)
                  0000cdc0    00000014                   : aux_adc.obj (.text:NOROM_AUXADCValueToMicrovolts)
                  0000cdd4    00000014     drivers_cc13x0.aem3 : PINCC26XX.oem3 (.text:PINCC26XX_getOutputValue)
                  0000cde8    00000014     rf_multiMode_cc13x0.aem3 : RFCC26XX_multiMode.oem3 (.text:RF_Params_init)
                  0000cdfc    00000014     rtsv7M3_T_le_eabi.lib : _lock.obj (.text)
                  0000ce10    00000014                           : strlen.obj (.text)
                  0000ce24    00000014     hello_pem3.oem3 (.text:ti_sysbios_family_arm_m3_Hwi_Object__get__S)
                  0000ce38    00000014     sysbios.aem3 : BIOS.obj (.text:ti_sysbios_family_arm_m3_Hwi_switchFromBootStack__E)
                  0000ce4c    00000014     hello_pem3.oem3 (.text:ti_sysbios_heaps_HeapMem_Object__get__S)
                  0000ce60    00000014     hello_pem3.oem3 (.text:ti_sysbios_knl_Clock_doTick__I)
                  0000ce74    00000014     hello_pem3.oem3 (.text:ti_sysbios_knl_Swi_Object__get__S)
                  0000ce88    00000012     drivers_cc13x0.aem3 : RingBuf.oem3 (.text:RingBuf_construct)
                  0000ce9a    00000012     dpl_cc13x0.aem3 : SemaphoreP_tirtos.oem3 (.text:SemaphoreP_pend)
                  0000ceac    00000012     sysbios.aem3 : BIOS.obj (.text:ti_sysbios_hal_Hwi_Module_startup__E)
                  0000cebe    00000012     hello_pem3.oem3 (.text:xdc_runtime_Startup_exec__I)
                  0000ced0    00000010     dpl_cc13x0.aem3 : ClockP_tirtos.oem3 (.text:ClockP_isActive)
                  0000cee0    00000010                     : HwiP_tirtos.oem3 (.text:HwiP_Params_init)
                  0000cef0    00000010     drivers_cc13x0.aem3 : I2C.oem3 (.text:I2C_Params_init)
                  0000cf00    00000010     driverlib.lib : aux_adc.obj (.text:NOROM_AUXADCFlushFifo)
                  0000cf10    00000010                   : aux_adc.obj (.text:NOROM_AUXADCReadFifo)
                  0000cf20    00000010                   : rfc.obj (.text:NOROM_RFCRfTrimSet)
                  0000cf30    00000010                   : setup_rom.obj (.text:NOROM_SetupGetTrimForXoscHfFastStart)
                  0000cf40    00000010                   : setup_rom.obj (.text:NOROM_SetupGetTrimForXoscHfIbiastherm)
                  0000cf50    00000010     dpl_cc13x0.aem3 : SwiP_tirtos.oem3 (.text:SwiP_Params_init)
                  0000cf60    00000010     drivers_cc13x0.aem3 : WatchdogCC26XX.oem3 (.text:WatchdogCC26XX_clear)
                  0000cf70    00000010                         : Watchdog.oem3 (.text:Watchdog_Params_init)
                  0000cf80    00000010     smartrf_settings.obj (.text:applyGenfskPatch)
                  0000cf90    00000010     smartrf_settings_predefined.obj (.text:applyGenfskPatch)
                  0000cfa0    00000010     smartrf_settings_predefined.obj (.text:applyGenookPatch)
                  0000cfb0    00000010     smartrf_settings_predefined.obj (.text:applyLrmPatch)
                  0000cfc0    00000010     smartrf_settings_predefined.obj (.text:applySl_longrangePatch)
                  0000cfd0    00000010     drivers_cc13x0.aem3 : I2CCC26XX.oem3 (.text:i2cPostNotify)
                  0000cfe0    00000010     sysbios.aem3 : BIOS.obj (.text:ti_sysbios_BIOS_exit__E)
                  0000cff0    00000010                  : BIOS.obj (.text:ti_sysbios_BIOS_getCpuFreq__E)
                  0000d000    00000010                  : BIOS.obj (.text:ti_sysbios_BIOS_setThreadType__E)
                  0000d010    00000010                  : BIOS.obj (.text:ti_sysbios_BIOS_start__E)
                  0000d020    00000010                  : BIOS.obj (.text:ti_sysbios_family_arm_m3_Hwi_post__E)
                  0000d030    00000010                  : m3_TaskSupport_asm.obj (.text:ti_sysbios_family_arm_m3_TaskSupport_glue)
                  0000d040    00000010                  : m3_TaskSupport_asm.obj (.text:ti_sysbios_family_arm_m3_TaskSupport_swap__E)
                  0000d050    00000010                  : BIOS.obj (.text:ti_sysbios_gates_GateMutex_Instance_finalize__E)
                  0000d060    00000010                  : BIOS.obj (.text:ti_sysbios_knl_Semaphore_Instance_finalize__E)
                  0000d070    00000010                  : BIOS.obj (.text:ti_sysbios_knl_Swi_disable__E)
                  0000d080    00000010                  : BIOS.obj (.text:ti_sysbios_knl_Swi_enabled__E)
                  0000d090    00000010     hello_pem3.oem3 (.text:ti_sysbios_knl_Task_Object__get__S)
                  0000d0a0    00000010     sysbios.aem3 : BIOS.obj (.text:ti_sysbios_knl_Task_disable__E)
                  0000d0b0    00000010     hello_pem3.oem3 (.text:ti_uia_loggers_LoggerStopMode_Object__get__S)
                  0000d0c0    00000010     ti.uia.loggers.aem3 : LoggerStopMode.oem3 (.text:ti_uia_loggers_LoggerStopMode_isEmpty__E)
                  0000d0d0    00000010     drivers_cc13x0.aem3 : UARTCC26XX.oem3 (.text:uartPostNotify)
                  0000d0e0    00000010     sysbios.aem3 : BIOS.obj (.text:xdc_runtime_Gate_leaveSystem__E)
                  0000d0f0    00000010                  : BIOS.obj (.text:xdc_runtime_Memory_free__E)
                  0000d100    00000010                  : BIOS.obj (.text:xdc_runtime_SysMin_ready__E)
                  0000d110    00000010                  : BIOS.obj (.text:xdc_runtime_System_vsnprintf__E)
                  0000d120    0000000e     driverlib.lib : vims.obj (.text:NOROM_VIMSModeGet)
                  0000d12e    0000000e     rtsv7M3_T_le_eabi.lib : copy_decompress_none.obj (.text:decompress:none)
                  0000d13c    0000000e     sysbios.aem3 : BIOS.obj (.text:ti_sysbios_heaps_HeapMem_restore__E)
                  0000d14a    0000000e                  : BIOS.obj (.text:ti_sysbios_knl_Queue_empty__E)
                  0000d158    0000000e                  : BIOS.obj (.text:ti_sysbios_knl_Queue_remove__E)
                  0000d166    00000002                  : BIOS.obj (.text:ti_sysbios_gates_GateHwi_Instance_init__E)
                  0000d168    0000000c     rf_multiMode_cc13x0.aem3 : RFCC26XX_multiMode.oem3 (.text:FsmNextState)
                  0000d174    0000000c     drivers_cc13x0.aem3 : List.oem3 (.text:List_empty)
                  0000d180    0000000c     driverlib.lib : cpu.obj (.text:NOROM_CPUcpsid)
                  0000d18c    0000000c                   : cpu.obj (.text:NOROM_CPUcpsie)
                  0000d198    0000000c                   : osc.obj (.text:NOROM_OSC_HPOSCRelativeFrequencyOffsetToRFCoreFormatConvert)
                  0000d1a4    0000000c     drivers_cc13x0.aem3 : PINCC26XX.oem3 (.text:PIN_registerIntCb)
                  0000d1b0    0000000c                         : PowerCC26XX.oem3 (.text:Power_getConstraintMask)
                  0000d1bc    0000000c                         : PowerCC26XX.oem3 (.text:Power_getDependencyCount)
                  0000d1c8    0000000c     dpl_cc13x0.aem3 : SemaphoreP_tirtos.oem3 (.text:SemaphoreP_delete)
                  0000d1d4    0000000c     rtsv7M3_T_le_eabi.lib : copy_zero_init.obj (.text:decompress:ZI)
                  0000d1e0    0000000c     sysbios.aem3 : BIOS.obj (.text:ti_sysbios_BIOS_getThreadType__E)
                  0000d1ec    0000000c     hello_pem3.oem3 (.text:ti_sysbios_family_arm_m3_Hwi_Params__init__S)
                  0000d1f8    0000000c     sysbios.aem3 : BIOS.obj (.text:ti_sysbios_family_arm_m3_Hwi_disableFxn__E)
                  0000d204    0000000c                  : BIOS.obj (.text:ti_sysbios_family_arm_m3_TaskSupport_getStackAlignment__E)
                  0000d210    0000000c                  : BIOS.obj (.text:ti_sysbios_gates_GateHwi_enter__E)
                  0000d21c    0000000c     hello_pem3.oem3 (.text:ti_sysbios_knl_Clock_Params__init__S)
                  0000d228    0000000c     sysbios.aem3 : BIOS.obj (.text:ti_sysbios_knl_Clock_getTimerHandle__E)
                  0000d234    0000000c     hello_pem3.oem3 (.text:ti_sysbios_knl_Queue_Object__get__S)
                  0000d240    0000000c     sysbios.aem3 : BIOS.obj (.text:ti_sysbios_knl_Queue_dequeue__E)
                  0000d24c    0000000c                  : BIOS.obj (.text:ti_sysbios_knl_Queue_enqueue__E)
                  0000d258    0000000c     hello_pem3.oem3 (.text:ti_sysbios_knl_Semaphore_Params__init__S)
                  0000d264    0000000c     main.obj (.text:ti_sysbios_knl_Semaphore_handle)
                  0000d270    0000000c     hello_pem3.oem3 (.text:ti_sysbios_knl_Swi_Params__init__S)
                  0000d27c    0000000c     sysbios.aem3 : BIOS.obj (.text:ti_sysbios_knl_Swi_getTrigger__E)
                  0000d288    0000000c     hello_pem3.oem3 (.text:ti_sysbios_knl_Task_Params__init__S)
                  0000d294    0000000c     sysbios.aem3 : BIOS.obj (.text:ti_sysbios_knl_Task_self__E)
                  0000d2a0    0000000c                  : BIOS.obj (.text:xdc_runtime_Gate_enterSystem__E)
                  0000d2ac    0000000c                  : BIOS.obj (.text:xdc_runtime_Memory_calloc__E)
                  0000d2b8    0000000c                  : BIOS.obj (.text:xdc_runtime_Memory_getMaxDefaultTypeAlign__E)
                  0000d2c4    0000000c                  : BIOS.obj (.text:xdc_runtime_Startup_rtsDone__E)
                  0000d2d0    0000000a     drivers_cc13x0.aem3 : ADC.oem3 (.text:ADC_Params_init)
                  0000d2da    0000000a                         : ADC.oem3 (.text:ADC_convert)
                  0000d2e4    0000000a                         : ADC.oem3 (.text:ADC_convertToMicroVolts)
                  0000d2ee    0000000a                         : I2CCC26XX.oem3 (.text:I2CCC26XX_init)
                  0000d2f8    0000000a                         : I2C.oem3 (.text:I2C_transfer)
                  0000d302    0000000a                         : UART.oem3 (.text:UART_close)
                  0000d30c    0000000a                         : UART.oem3 (.text:UART_control)
                  0000d316    0000000a                         : UART.oem3 (.text:UART_write)
                  0000d320    0000000a                         : Watchdog.oem3 (.text:Watchdog_clear)
                  0000d32a    0000000a                         : Watchdog.oem3 (.text:Watchdog_setReload)
                  0000d334    0000000a     hello_pem3.oem3 (.text:xdc_runtime_IHeap_alloc)
                  0000d33e    0000000a     hello_pem3.oem3 (.text:xdc_runtime_IHeap_free)
                  0000d348    00000008     drivers_cc13x0.aem3 : ADCCC26XX.oem3 (.text:ADCCC26XX_init)
                  0000d350    00000008                         : I2CCC26XX.oem3 (.text:I2CCC26XX_blockingCallback)
                  0000d358    00000008                         : WatchdogCC26XX.oem3 (.text:WatchdogCC26XX_init)
                  0000d360    00000008                         : UARTCC26XX.oem3 (.text:readSemCallback)
                  0000d368    00000008     smartrf_settings.obj (.text:rf_patch_cpe_genfsk)
                  0000d370    00000008     smartrf_settings_predefined.obj (.text:rf_patch_cpe_genfsk)
                  0000d378    00000008     smartrf_settings_predefined.obj (.text:rf_patch_cpe_genook)
                  0000d380    00000008     smartrf_settings_predefined.obj (.text:rf_patch_cpe_lrm)
                  0000d388    00000008     smartrf_settings_predefined.obj (.text:rf_patch_cpe_sl_longrange)
                  0000d390    00000008     sysbios.aem3 : BIOS.obj (.text:ti_sysbios_family_arm_m3_Hwi_doSwiRestore__I)
                  0000d398    00000008                  : BIOS.obj (.text:ti_sysbios_family_arm_m3_Hwi_startup__E)
                  0000d3a0    00000008                  : BIOS.obj (.text:ti_sysbios_knl_Idle_loop__E)
                  0000d3a8    00000008     drivers_cc13x0.aem3 : UARTCC26XX.oem3 (.text:writeSemCallback)
                  0000d3b0    00000008     hello_pem3.oem3 (.text:xdc_runtime_Text_visitRope__I)
                  0000d3b8    00000006     drivers_cc13x0.aem3 : ADCCC26XX.oem3 (.text:ADCCC26XX_control)
                  0000d3be    00000006     dpl_cc13x0.aem3 : ClockP_tirtos.oem3 (.text:ClockP_Params_init)
                  0000d3c4    00000006     display.aem3 : DisplayUart.oem3 (.text:DisplayUartMin_control)
                  0000d3ca    00000006                  : DisplayUart.oem3 (.text:DisplayUartMin_getType)
                  0000d3d0    00000006     drivers_cc13x0.aem3 : I2CCC26XX.oem3 (.text:I2CCC26XX_control)
                  0000d3d6    00000006     driverlib.lib : cpu.obj (.text:NOROM_CPUdelay)
                  0000d3dc    00000006     drivers_cc13x0.aem3 : UARTCC26XX.oem3 (.text:UARTCC26XX_readPolling)
                  0000d3e2    00000006                         : UARTCC26XX.oem3 (.text:UARTCC26XX_writePolling)
                  0000d3e8    00000006                         : WatchdogCC26XX.oem3 (.text:WatchdogCC26XX_control)
                  0000d3ee    00000006     rf_multiMode_cc13x0.aem3 : RFCC26XX_multiMode.oem3 (.text:clkReqAccessFxn)
                  0000d3f4    00000006     sysbios.aem3 : BIOS.obj (.text:ti_sysbios_family_arm_m3_Hwi_doTaskRestore__I)
                  0000d3fa    00000006                  : BIOS.obj (.text:ti_sysbios_family_arm_m3_Hwi_restoreFxn__E)
                  0000d400    00000006                  : BIOS.obj (.text:ti_sysbios_family_arm_m3_Hwi_setFunc__E)
                  0000d406    00000006                  : BIOS.obj (.text:ti_sysbios_gates_GateHwi_leave__E)
                  0000d40c    00000006                  : BIOS.obj (.text:ti_sysbios_heaps_HeapMem_isBlocking__E)
                  0000d412    00000006                  : BIOS.obj (.text:ti_sysbios_knl_Queue_Instance_init__E)
                  0000d418    00000006                  : BIOS.obj (.text:ti_sysbios_knl_Queue_elemClear__E)
                  0000d41e    00000006                  : BIOS.obj (.text:ti_sysbios_knl_Swi_startup__E)
                  0000d424    00000006                  : BIOS.obj (.text:xdc_runtime_System_Module_startup__E)
                  0000d42a    00000004     dpl_cc13x0.aem3 : PowerCC26XX_tirtos.oem3 (.text:CPUwfi)
                  0000d42e    00000004                     : ClockP_tirtos.oem3 (.text:ClockP_destruct)
                  0000d432    00000004                     : ClockP_tirtos.oem3 (.text:ClockP_getCpuFreq)
                  0000d436    00000004                     : ClockP_tirtos.oem3 (.text:ClockP_getTimeout)
                  0000d43a    00000004                     : ClockP_tirtos.oem3 (.text:ClockP_setTimeout)
                  0000d43e    00000004                     : ClockP_tirtos.oem3 (.text:ClockP_start)
                  0000d442    00000004                     : ClockP_tirtos.oem3 (.text:ClockP_stop)
                  0000d446    00000004                     : HwiP_tirtos.oem3 (.text:HwiP_destruct)
                  0000d44a    00000004                     : HwiP_tirtos.oem3 (.text:HwiP_disable)
                  0000d44e    00000004                     : HwiP_tirtos.oem3 (.text:HwiP_disableInterrupt)
                  0000d452    00000004                     : HwiP_tirtos.oem3 (.text:HwiP_enableInterrupt)
                  0000d456    00000004                     : HwiP_tirtos.oem3 (.text:HwiP_plug)
                  0000d45a    00000004                     : HwiP_tirtos.oem3 (.text:HwiP_post)
                  0000d45e    00000004                     : HwiP_tirtos.oem3 (.text:HwiP_setFunc)
                  0000d462    00000004     drivers_cc13x0.aem3 : List.oem3 (.text:List_head)
                  0000d466    00000004                         : List.oem3 (.text:List_next)
                  0000d46a    00000004     rf_multiMode_cc13x0.aem3 : RFCC26XX_multiMode.oem3 (.text:Q_peek)
                  0000d46e    00000004     dpl_cc13x0.aem3 : SemaphoreP_tirtos.oem3 (.text:SemaphoreP_destruct)
                  0000d472    00000004                     : SemaphoreP_tirtos.oem3 (.text:SemaphoreP_post)
                  0000d476    00000004                     : SwiP_tirtos.oem3 (.text:SwiP_destruct)
                  0000d47a    00000004                     : SwiP_tirtos.oem3 (.text:SwiP_disable)
                  0000d47e    00000004                     : SwiP_tirtos.oem3 (.text:SwiP_getTrigger)
                  0000d482    00000004                     : SwiP_tirtos.oem3 (.text:SwiP_or)
                  0000d486    00000004                     : SwiP_tirtos.oem3 (.text:SwiP_post)
                  0000d48a    00000004                     : SystemP_tirtos.oem3 (.text:SystemP_vsnprintf)
                  0000d48e    00000004     drivers_cc13x0.aem3 : PowerCC26XX.oem3 (.text:nopResourceHandler)
                  0000d492    00000004     rtsv7M3_T_le_eabi.lib : error.obj (.text)
                  0000d496    00000004     hello_pem3.oem3 (.text:ti_sysbios_BIOS_RtsGateProxy_enter__E)
                  0000d49a    00000004     hello_pem3.oem3 (.text:ti_sysbios_BIOS_RtsGateProxy_leave__E)
                  0000d49e    00000004     sysbios.aem3 : BIOS.obj (.text:ti_sysbios_family_arm_cc26xx_Timer_getCount64__E)
                  0000d4a2    00000004                  : BIOS.obj (.text:ti_sysbios_family_arm_cc26xx_Timer_setPeriod__E)
                  0000d4a6    00000004     hello_pem3.oem3 (.text:ti_sysbios_family_arm_m3_TaskSupport_Module__startupDone__S)
                  0000d4aa    00000004     sysbios.aem3 : BIOS.obj (.text:ti_sysbios_gates_GateHwi_query__E)
                  0000d4ae    00000004                  : BIOS.obj (.text:ti_sysbios_gates_GateMutex_query__E)
                  0000d4b2    00000004     hello_pem3.oem3 (.text:ti_sysbios_heaps_HeapMem_Module_GateProxy_enter__E)
                  0000d4b6    00000004     hello_pem3.oem3 (.text:ti_sysbios_heaps_HeapMem_Module_GateProxy_leave__E)
                  0000d4ba    00000004     hello_pem3.oem3 (.text:ti_sysbios_knl_Clock_TimerProxy_getCurrentTick__E)
                  0000d4be    00000004     hello_pem3.oem3 (.text:ti_sysbios_knl_Clock_TimerProxy_getMaxTicks__E)
                  0000d4c2    00000004     hello_pem3.oem3 (.text:ti_sysbios_knl_Clock_TimerProxy_setNextTick__E)
                  0000d4c6    00000004     sysbios.aem3 : BIOS.obj (.text:ti_sysbios_knl_Clock_isActive__E)
                  0000d4ca    00000004                  : BIOS.obj (.text:ti_sysbios_knl_Clock_removeI__E)
                  0000d4ce    00000004                  : BIOS.obj (.text:ti_sysbios_knl_Clock_setTimeout__E)
                  0000d4d2    00000004                  : BIOS.obj (.text:ti_sysbios_knl_Queue_head__E)
                  0000d4d6    00000004                  : BIOS.obj (.text:ti_sysbios_knl_Queue_next__E)
                  0000d4da    00000004     hello_pem3.oem3 (.text:ti_sysbios_knl_Semaphore_delete)
                  0000d4de    00000004     sysbios.aem3 : BIOS.obj (.text:ti_sysbios_knl_Swi_postInit__I)
                  0000d4e2    00000004                  : BIOS.obj (.text:ti_sysbios_knl_Task_startup__E)
                  0000d4e6    00000004     ti.uia.loggers.aem3 : LoggerStopMode.oem3 (.text:ti_uia_loggers_LoggerStopMode_getContents__E)
                  0000d4ea    00000004     hello_pem3.oem3 (.text:ti_uia_loggers_LoggerStopMode_getFilterLevel__E)
                  0000d4ee    00000004     ti.uia.loggers.aem3 : LoggerStopMode.oem3 (.text:ti_uia_loggers_LoggerStopMode_getInstanceId__E)
                  0000d4f2    00000004                         : LoggerStopMode.oem3 (.text:ti_uia_loggers_LoggerStopMode_getMaxLength__E)
                  0000d4f6    00000004                         : LoggerStopMode.oem3 (.text:ti_uia_loggers_LoggerStopMode_getPriority__E)
                  0000d4fa    00000004                         : LoggerStopMode.oem3 (.text:ti_uia_loggers_LoggerStopMode_getTransferType__E)
                  0000d4fe    00000004     hello_pem3.oem3 (.text:xdc_runtime_System_Module_GateProxy_enter__E)
                  0000d502    00000004     hello_pem3.oem3 (.text:xdc_runtime_System_Module_GateProxy_leave__E)
                  0000d506    00000002     sysbios.aem3 : BIOS.obj (.text:ti_sysbios_knl_Clock_triggerFunc__I)
                  0000d508    00000002                  : BIOS.obj (.text:ti_sysbios_knl_Swi_Instance_finalize__E)
                  0000d50a    00000002     hello_pem3.oem3 (.text:ti_uia_loggers_LoggerStopMode_setFilterLevel__E)
                  0000d50c    00000002     ti.uia.loggers.aem3 : LoggerStopMode.oem3 (.text:ti_uia_loggers_LoggerStopMode_setPriority__E)
                  0000d50e    00000002     sysbios.aem3 : BIOS.obj (.text:xdc_runtime_Error_policySpin__E)
                  0000d510    00000002                  : BIOS.obj (.text:xdc_runtime_System_abortSpin__E)
                  0000d512    00000002                  : BIOS.obj (.text:xdc_runtime_System_exitSpin__E)

.const     0    0000d514    00004d42     
                  0000d514    0000073c     smartrf_settings_predefined.obj (.const:patchGenookMce)
                  0000dc50    000006b4     smartrf_settings.obj (.const:patchGenfskRfe)
                  0000e304    000006b4     smartrf_settings_predefined.obj (.const:patchGenfskRfe)
                  0000e9b8    000006b4     smartrf_settings_predefined.obj (.const:patchLrmRfe)
                  0000f06c    000006b4     smartrf_settings_predefined.obj (.const:patchSl_longrangeRfe)
                  0000f720    000006a4     smartrf_settings_predefined.obj (.const:patchGenookRfe)
                  0000fdc4    00000504     smartrf_settings_predefined.obj (.const:patchHsp4mbpsRfe)
                  000102c8    00000400     smartrf_settings_predefined.obj (.const:patchSl_longrangeMce)
                  000106c8    000003f0     smartrf_settings_predefined.obj (.const:patchHsp4mbpsMce)
                  00010ab8    000002b0     smartrf_settings.obj (.const:patchImageGenfsk)
                  00010d68    000002b0     smartrf_settings_predefined.obj (.const:patchImageGenfsk)
                  00011018    000002b0     smartrf_settings_predefined.obj (.const:patchImageGenook)
                  000112c8    000002b0     smartrf_settings_predefined.obj (.const:patchImageLrm)
                  00011578    000002b0     smartrf_settings_predefined.obj (.const:patchImageSl_longrange)
                  00011828    00000090     main.obj (.const:$P$T3$2)
                  000118b8    00000084     CC1310_LAUNCHXL.obj (.const:ADC_config)
                  0001193c    00000060     hello_pem3.oem3 (.const:ti_uia_loggers_LoggerStopMode_Module__FXNS__C)
                  0001199c    0000004d     CC1310_LAUNCHXL.obj (.const:adcCC26xxHWAttrs)
                  000119e9    00000001     display.aem3 : Display.oem3 (.const:Display_defaultParams)
                  000119ea    0000004c     drivers_cc13x0.aem3 : PowerCC26XX.oem3 (.const:resourceDB)
                  00011a36    00000002     hello_pem3.oem3 (.const:ti_sysbios_family_arm_cc26xx_TimestampProvider_useClockTimer__C)
                  00011a38    00000048     hello_pem3.oem3 (.const:.string)
                  00011a80    00000040     drivers_cc13x0.aem3 : UARTCC26XX.oem3 (.const:$O1$$)
                  00011ac0    00000040     smartrf_settings_predefined.obj (.const:rfPowerTable)
                  00011b00    0000003c     hello_pem3.oem3 (.const:ti_sysbios_knl_Task_Object__PARAMS__C)
                  00011b3c    00000030     hello_pem3.oem3 (.const:ti_sysbios_family_arm_m3_Hwi_Object__PARAMS__C)
                  00011b6c    0000002c     CC1310_LAUNCHXL.obj (.const:BoardGpioInitTable)
                  00011b98    00000028     drivers_cc13x0.aem3 : UARTCC26XX.oem3 (.const:UARTCC26XX_fxnTable)
                  00011bc0    00000028     hello_pem3.oem3 (.const:ti_sysbios_heaps_HeapMem_Module__FXNS__C)
                  00011be8    00000028     hello_pem3.oem3 (.const:ti_sysbios_knl_Swi_Object__PARAMS__C)
                  00011c10    00000028     hello_pem3.oem3 (.const:ti_uia_loggers_LoggerStopMode_Object__PARAMS__C)
                  00011c38    00000028     hello_pem3.oem3 (.const:xdc_runtime_Startup_sfxnTab__A)
                  00011c60    00000024     drivers_cc13x0.aem3 : UART.oem3 (.const:UART_defaultParams)
                  00011c84    00000024     hello_pem3.oem3 (.const:ti_sysbios_gates_GateHwi_Module__FXNS__C)
                  00011ca8    00000024     hello_pem3.oem3 (.const:ti_sysbios_gates_GateMutex_Module__FXNS__C)
                  00011ccc    00000024     hello_pem3.oem3 (.const:ti_sysbios_heaps_HeapMem_Object__PARAMS__C)
                  00011cf0    00000024     hello_pem3.oem3 (.const:ti_sysbios_knl_Clock_Object__PARAMS__C)
                  00011d14    00000024     hello_pem3.oem3 (.const:ti_sysbios_knl_Semaphore_Object__PARAMS__C)
                  00011d38    00000020     display.aem3 : DisplayUart.oem3 (.const:DisplayUartMin_fxnTable)
                  00011d58    00000020     hello_pem3.oem3 (.const:ti_sysbios_family_arm_m3_Hwi_Object__DESC__C)
                  00011d78    00000020     hello_pem3.oem3 (.const:ti_sysbios_gates_GateHwi_Object__DESC__C)
                  00011d98    00000020     hello_pem3.oem3 (.const:ti_sysbios_gates_GateMutex_Object__DESC__C)
                  00011db8    00000020     hello_pem3.oem3 (.const:ti_sysbios_heaps_HeapMem_Object__DESC__C)
                  00011dd8    00000020     hello_pem3.oem3 (.const:ti_sysbios_knl_Clock_Object__DESC__C)
                  00011df8    00000020     hello_pem3.oem3 (.const:ti_sysbios_knl_Queue_Object__DESC__C)
                  00011e18    00000020     hello_pem3.oem3 (.const:ti_sysbios_knl_Semaphore_Object__DESC__C)
                  00011e38    00000020     hello_pem3.oem3 (.const:ti_sysbios_knl_Swi_Object__DESC__C)
                  00011e58    00000020     hello_pem3.oem3 (.const:ti_sysbios_knl_Task_Object__DESC__C)
                  00011e78    00000020     hello_pem3.oem3 (.const:ti_uia_loggers_LoggerStopMode_Object__DESC__C)
                  00011e98    00000020     CC1310_LAUNCHXL.obj (.const:uartCC26XXHWAttrs)
                  00011eb8    0000001c     rf_multiMode_cc13x0.aem3 : RFCC26XX_multiMode.oem3 (.const:RF_defaultParams)
                  00011ed4    0000001c     drivers_cc13x0.aem3 : WatchdogCC26XX.oem3 (.const:WatchdogCC26XX_fxnTable)
                  00011ef0    00000018     EasyLink.obj (.const:$P$T0$3)
                  00011f08    00000018     drivers_cc13x0.aem3 : ADCCC26XX.oem3 (.const:ADCCC26XX_fxnTable)
                  00011f20    00000018                         : I2CCC26XX.oem3 (.const:I2CCC26XX_fxnTable)
                  00011f38    00000018     CC1310_LAUNCHXL.obj (.const:i2cCC26xxHWAttrs)
                  00011f50    00000018     driverlib.lib : rfc.obj (.const:rfc_defaultIrqAddr)
                  00011f68    00000018     hello_pem3.oem3 (.const:ti_sysbios_gates_GateHwi_Object__PARAMS__C)
                  00011f80    00000018     hello_pem3.oem3 (.const:ti_sysbios_gates_GateMutex_Object__PARAMS__C)
                  00011f98    00000018     hello_pem3.oem3 (.const:ti_sysbios_knl_Queue_Object__PARAMS__C)
                  00011fb0    00000014     CC1310_LAUNCHXL.obj (.const:displayUartHWAttrs)
                  00011fc4    00000014     hello_pem3.oem3 (.const:xdc_runtime_Startup_sfxnRts__A)
                  00011fd8    00000010     drivers_cc13x0.aem3 : I2C.oem3 (.const:I2C_defaultParams)
                  00011fe8    00000010     CC1310_LAUNCHXL.obj (.const:PowerCC26XX_config)
                  00011ff8    0000000c     CC1310_LAUNCHXL.obj (.const:Display_config)
                  00012004    0000000c     CC1310_LAUNCHXL.obj (.const:I2C_config)
                  00012010    0000000c     CC1310_LAUNCHXL.obj (.const:UART_config)
                  0001201c    0000000c     CC1310_LAUNCHXL.obj (.const:Watchdog_config)
                  00012028    0000000c     drivers_cc13x0.aem3 : Watchdog.oem3 (.const:Watchdog_defaultParams)
                  00012034    0000000c     hello_pem3.oem3 (.const:xdc_runtime_Startup_firstFxns__A)
                  00012040    00000009     CC1310_LAUNCHXL.obj (.const)
                  00012049    00000001     smartrf_settings_predefined.obj (.const)
                  0001204a    00000002     hello_pem3.oem3 (.const:ti_sysbios_family_arm_m3_Hwi_Module__id__C)
                  0001204c    00000008     drivers_cc13x0.aem3 : ADC.oem3 (.const:ADC_defaultParams)
                  00012054    00000008     CC1310_LAUNCHXL.obj (.const:PINCC26XX_hwAttrs)
                  0001205c    00000008     drivers_cc13x0.aem3 : I2CCC26XX.oem3 (.const:bitRate)
                  00012064    00000008     hello_pem3.oem3 (.const:ti_sysbios_knl_Idle_funcList__C)
                  0001206c    00000008     CC1310_LAUNCHXL.obj (.const:watchdogCC26XXHWAttrs)
                  00012074    00000008     hello_pem3.oem3 (.const:xdc_runtime_Startup_firstFxns__C)
                  0001207c    00000008     hello_pem3.oem3 (.const:xdc_runtime_Startup_lastFxns__C)
                  00012084    00000004     EasyLink.obj (.const:$P$T1$4)
                  00012088    00000004     CC1310_LAUNCHXL.obj (.const:RFCC26XX_hwAttrs)
                  0001208c    00000004     hello_pem3.oem3 (.const:ti_sysbios_family_arm_cc26xx_Timer_startupNeeded__C)
                  00012090    00000004     hello_pem3.oem3 (.const:ti_sysbios_family_arm_m3_Hwi_E_alreadyDefined__C)
                  00012094    00000004     hello_pem3.oem3 (.const:ti_sysbios_family_arm_m3_Hwi_LD_end__C)
                  00012098    00000004     hello_pem3.oem3 (.const:ti_sysbios_family_arm_m3_Hwi_LM_begin__C)
                  0001209c    00000004     hello_pem3.oem3 (.const:ti_sysbios_family_arm_m3_Hwi_Module__diagsEnabled__C)
                  000120a0    00000004     hello_pem3.oem3 (.const:ti_sysbios_family_arm_m3_Hwi_Module__diagsIncluded__C)
                  000120a4    00000004     hello_pem3.oem3 (.const:ti_sysbios_family_arm_m3_Hwi_Module__diagsMask__C)
                  000120a8    00000004     hello_pem3.oem3 (.const:ti_sysbios_family_arm_m3_Hwi_Module__loggerFxn1__C)
                  000120ac    00000004     hello_pem3.oem3 (.const:ti_sysbios_family_arm_m3_Hwi_Module__loggerFxn8__C)
                  000120b0    00000004     hello_pem3.oem3 (.const:ti_sysbios_family_arm_m3_Hwi_Module__loggerObj__C)
                  000120b4    00000004     hello_pem3.oem3 (.const:ti_sysbios_family_arm_m3_Hwi_NUM_INTERRUPTS__C)
                  000120b8    00000004     hello_pem3.oem3 (.const:ti_sysbios_family_arm_m3_Hwi_Object__count__C)
                  000120bc    00000004     hello_pem3.oem3 (.const:ti_sysbios_family_arm_m3_Hwi_ccr__C)
                  000120c0    00000004     hello_pem3.oem3 (.const:ti_sysbios_family_arm_m3_Hwi_excHandlerFunc__C)
                  000120c4    00000004     hello_pem3.oem3 (.const:ti_sysbios_family_arm_m3_Hwi_nullIsrFunc__C)
                  000120c8    00000004     hello_pem3.oem3 (.const:ti_sysbios_family_arm_m3_Hwi_priGroup__C)
                  000120cc    00000004     hello_pem3.oem3 (.const:ti_sysbios_family_arm_m3_Hwi_swiDisable__C)
                  000120d0    00000004     hello_pem3.oem3 (.const:ti_sysbios_family_arm_m3_Hwi_swiRestoreHwi__C)
                  000120d4    00000004     hello_pem3.oem3 (.const:ti_sysbios_family_arm_m3_TaskSupport_stackAlignment__C)
                  000120d8    00000004     hello_pem3.oem3 (.const:ti_sysbios_gates_GateMutex_Instance_State_sem__O)
                  000120dc    00000004     hello_pem3.oem3 (.const:ti_sysbios_heaps_HeapMem_E_memory__C)
                  000120e0    00000004     hello_pem3.oem3 (.const:ti_sysbios_heaps_HeapMem_Module__gateObj__C)
                  000120e4    00000004     hello_pem3.oem3 (.const:ti_sysbios_heaps_HeapMem_Object__count__C)
                  000120e8    00000004     hello_pem3.oem3 (.const:ti_sysbios_heaps_HeapMem_primaryHeapBaseAddr__C)
                  000120ec    00000004     hello_pem3.oem3 (.const:ti_sysbios_heaps_HeapMem_primaryHeapEndAddr__C)
                  000120f0    00000004     hello_pem3.oem3 (.const:ti_sysbios_heaps_HeapMem_reqAlign__C)
                  000120f4    00000004     hello_pem3.oem3 (.const:ti_sysbios_knl_Clock_LM_begin__C)
                  000120f8    00000004     hello_pem3.oem3 (.const:ti_sysbios_knl_Clock_LM_tick__C)
                  000120fc    00000004     hello_pem3.oem3 (.const:ti_sysbios_knl_Clock_Module_State_clockQ__O)
                  00012100    00000004     hello_pem3.oem3 (.const:ti_sysbios_knl_Clock_Module__diagsEnabled__C)
                  00012104    00000004     hello_pem3.oem3 (.const:ti_sysbios_knl_Clock_Module__diagsIncluded__C)
                  00012108    00000004     hello_pem3.oem3 (.const:ti_sysbios_knl_Clock_Module__diagsMask__C)
                  0001210c    00000004     hello_pem3.oem3 (.const:ti_sysbios_knl_Clock_Module__loggerFxn1__C)
                  00012110    00000004     hello_pem3.oem3 (.const:ti_sysbios_knl_Clock_Module__loggerFxn2__C)
                  00012114    00000004     hello_pem3.oem3 (.const:ti_sysbios_knl_Clock_Module__loggerObj__C)
                  00012118    00000004     hello_pem3.oem3 (.const:ti_sysbios_knl_Clock_tickPeriod__C)
                  0001211c    00000004     hello_pem3.oem3 (.const:ti_sysbios_knl_Clock_triggerClock__C)
                  00012120    00000004     hello_pem3.oem3 (.const:ti_sysbios_knl_Idle_funcList__A)
                  00012124    00000004     hello_pem3.oem3 (.const:ti_sysbios_knl_Semaphore_Instance_State_pendQ__O)
                  00012128    00000004     hello_pem3.oem3 (.const:ti_sysbios_knl_Semaphore_LM_pend__C)
                  0001212c    00000004     hello_pem3.oem3 (.const:ti_sysbios_knl_Semaphore_LM_post__C)
                  00012130    00000004     hello_pem3.oem3 (.const:ti_sysbios_knl_Semaphore_Module__diagsEnabled__C)
                  00012134    00000004     hello_pem3.oem3 (.const:ti_sysbios_knl_Semaphore_Module__diagsIncluded__C)
                  00012138    00000004     hello_pem3.oem3 (.const:ti_sysbios_knl_Semaphore_Module__diagsMask__C)
                  0001213c    00000004     hello_pem3.oem3 (.const:ti_sysbios_knl_Semaphore_Module__loggerFxn2__C)
                  00012140    00000004     hello_pem3.oem3 (.const:ti_sysbios_knl_Semaphore_Module__loggerFxn4__C)
                  00012144    00000004     hello_pem3.oem3 (.const:ti_sysbios_knl_Semaphore_Module__loggerObj__C)
                  00012148    00000004     hello_pem3.oem3 (.const:ti_sysbios_knl_Swi_LD_end__C)
                  0001214c    00000004     hello_pem3.oem3 (.const:ti_sysbios_knl_Swi_LM_begin__C)
                  00012150    00000004     hello_pem3.oem3 (.const:ti_sysbios_knl_Swi_LM_post__C)
                  00012154    00000004     hello_pem3.oem3 (.const:ti_sysbios_knl_Swi_Module__diagsEnabled__C)
                  00012158    00000004     hello_pem3.oem3 (.const:ti_sysbios_knl_Swi_Module__diagsIncluded__C)
                  0001215c    00000004     hello_pem3.oem3 (.const:ti_sysbios_knl_Swi_Module__diagsMask__C)
                  00012160    00000004     hello_pem3.oem3 (.const:ti_sysbios_knl_Swi_Module__loggerFxn1__C)
                  00012164    00000004     hello_pem3.oem3 (.const:ti_sysbios_knl_Swi_Module__loggerFxn4__C)
                  00012168    00000004     hello_pem3.oem3 (.const:ti_sysbios_knl_Swi_Module__loggerObj__C)
                  0001216c    00000004     hello_pem3.oem3 (.const:ti_sysbios_knl_Swi_Object__count__C)
                  00012170    00000004     hello_pem3.oem3 (.const:ti_sysbios_knl_Task_LD_block__C)
                  00012174    00000004     hello_pem3.oem3 (.const:ti_sysbios_knl_Task_LD_exit__C)
                  00012178    00000004     hello_pem3.oem3 (.const:ti_sysbios_knl_Task_LD_ready__C)
                  0001217c    00000004     hello_pem3.oem3 (.const:ti_sysbios_knl_Task_LM_switch__C)
                  00012180    00000004     hello_pem3.oem3 (.const:ti_sysbios_knl_Task_LM_yield__C)
                  00012184    00000004     hello_pem3.oem3 (.const:ti_sysbios_knl_Task_Module_State_inactiveQ__O)
                  00012188    00000004     hello_pem3.oem3 (.const:ti_sysbios_knl_Task_Module__diagsEnabled__C)
                  0001218c    00000004     hello_pem3.oem3 (.const:ti_sysbios_knl_Task_Module__diagsIncluded__C)
                  00012190    00000004     hello_pem3.oem3 (.const:ti_sysbios_knl_Task_Module__diagsMask__C)
                  00012194    00000004     hello_pem3.oem3 (.const:ti_sysbios_knl_Task_Module__loggerFxn2__C)
                  00012198    00000004     hello_pem3.oem3 (.const:ti_sysbios_knl_Task_Module__loggerFxn4__C)
                  0001219c    00000004     hello_pem3.oem3 (.const:ti_sysbios_knl_Task_Module__loggerObj__C)
                  000121a0    00000004     hello_pem3.oem3 (.const:ti_sysbios_knl_Task_Object__count__C)
                  000121a4    00000004     hello_pem3.oem3 (.const:ti_sysbios_knl_Task_allBlockedFunc__C)
                  000121a8    00000004     hello_pem3.oem3 (.const:ti_sysbios_knl_Task_defaultStackHeap__C)
                  000121ac    00000004     hello_pem3.oem3 (.const:ti_sysbios_knl_Task_defaultStackSize__C)
                  000121b0    00000004     hello_pem3.oem3 (.const:ti_sysbios_knl_Task_numConstructedTasks__C)
                  000121b4    00000004     hello_pem3.oem3 (.const:ti_uia_loggers_LoggerStopMode_Module__diagsEnabled__C)
                  000121b8    00000004     hello_pem3.oem3 (.const:ti_uia_loggers_LoggerStopMode_Module__diagsIncluded__C)
                  000121bc    00000004     hello_pem3.oem3 (.const:ti_uia_loggers_LoggerStopMode_Module__diagsMask__C)
                  000121c0    00000004     hello_pem3.oem3 (.const:ti_uia_loggers_LoggerStopMode_Object__count__C)
                  000121c4    00000004     hello_pem3.oem3 (.const:ti_uia_runtime_ILoggerSnapshot_Interface__BASE__C)
                  000121c8    00000004     hello_pem3.oem3 (.const:ti_uia_runtime_IUIATransfer_Interface__BASE__C)
                  000121cc    00000004     hello_pem3.oem3 (.const:xdc_runtime_Assert_E_assertFailed__C)
                  000121d0    00000004     hello_pem3.oem3 (.const:xdc_runtime_Error_E_memory__C)
                  000121d4    00000004     hello_pem3.oem3 (.const:xdc_runtime_Error_policyFxn__C)
                  000121d8    00000004     hello_pem3.oem3 (.const:xdc_runtime_IFilterLogger_Interface__BASE__C)
                  000121dc    00000004     hello_pem3.oem3 (.const:xdc_runtime_IGateProvider_Interface__BASE__C)
                  000121e0    00000004     hello_pem3.oem3 (.const:xdc_runtime_IHeap_Interface__BASE__C)
                  000121e4    00000004     hello_pem3.oem3 (.const:xdc_runtime_ILogger_Interface__BASE__C)
                  000121e8    00000004     hello_pem3.oem3 (.const:xdc_runtime_IModule_Interface__BASE__C)
                  000121ec    00000004     hello_pem3.oem3 (.const:xdc_runtime_Memory_defaultHeapInstance__C)
                  000121f0    00000004     hello_pem3.oem3 (.const:xdc_runtime_Startup_execImpl__C)
                  000121f4    00000004     hello_pem3.oem3 (.const:xdc_runtime_Startup_maxPasses__C)
                  000121f8    00000004     hello_pem3.oem3 (.const:xdc_runtime_Startup_sfxnRts__C)
                  000121fc    00000004     hello_pem3.oem3 (.const:xdc_runtime_Startup_sfxnTab__C)
                  00012200    00000004     hello_pem3.oem3 (.const:xdc_runtime_SysMin_bufSize__C)
                  00012204    00000004     hello_pem3.oem3 (.const:xdc_runtime_SysMin_outputFunc__C)
                  00012208    00000004     hello_pem3.oem3 (.const:xdc_runtime_System_Module__gateObj__C)
                  0001220c    00000004     hello_pem3.oem3 (.const:xdc_runtime_System_abortFxn__C)
                  00012210    00000004     hello_pem3.oem3 (.const:xdc_runtime_System_exitFxn__C)
                  00012214    00000004     hello_pem3.oem3 (.const:xdc_runtime_System_extendFxn__C)
                  00012218    00000004     hello_pem3.oem3 (.const:xdc_runtime_System_maxAtexitHandlers__C)
                  0001221c    00000004     hello_pem3.oem3 (.const:xdc_runtime_Text_charTab__C)
                  00012220    00000004     hello_pem3.oem3 (.const:xdc_runtime_Text_nameEmpty__C)
                  00012224    00000004     hello_pem3.oem3 (.const:xdc_runtime_Text_nameStatic__C)
                  00012228    00000004     hello_pem3.oem3 (.const:xdc_runtime_Text_nameUnknown__C)
                  0001222c    00000004     hello_pem3.oem3 (.const:xdc_runtime_Text_visitRopeFxn__C)
                  00012230    00000002     hello_pem3.oem3 (.const:ti_sysbios_family_arm_m3_Hwi_Module__loggerDefined__C)
                  00012232    00000002     hello_pem3.oem3 (.const:ti_sysbios_heaps_HeapMem_Module__id__C)
                  00012234    00000002     hello_pem3.oem3 (.const:ti_sysbios_knl_Clock_Module__id__C)
                  00012236    00000002     hello_pem3.oem3 (.const:ti_sysbios_knl_Clock_Module__loggerDefined__C)
                  00012238    00000002     hello_pem3.oem3 (.const:ti_sysbios_knl_Semaphore_Module__id__C)
                  0001223a    00000002     hello_pem3.oem3 (.const:ti_sysbios_knl_Semaphore_Module__loggerDefined__C)
                  0001223c    00000002     hello_pem3.oem3 (.const:ti_sysbios_knl_Swi_Module__id__C)
                  0001223e    00000002     hello_pem3.oem3 (.const:ti_sysbios_knl_Swi_Module__loggerDefined__C)
                  00012240    00000002     hello_pem3.oem3 (.const:ti_sysbios_knl_Task_Module__id__C)
                  00012242    00000002     hello_pem3.oem3 (.const:ti_sysbios_knl_Task_Module__loggerDefined__C)
                  00012244    00000002     hello_pem3.oem3 (.const:ti_uia_loggers_LoggerStopMode_Module__id__C)
                  00012246    00000002     hello_pem3.oem3 (.const:ti_uia_loggers_LoggerStopMode_isTimestampEnabled__C)
                  00012248    00000002     hello_pem3.oem3 (.const:xdc_runtime_Memory_Module__id__C)
                  0001224a    00000002     hello_pem3.oem3 (.const:xdc_runtime_SysMin_flushAtExit__C)
                  0001224c    00000002     hello_pem3.oem3 (.const:xdc_runtime_Text_charCnt__C)
                  0001224e    00000002     hello_pem3.oem3 (.const:xdc_runtime_Text_isLoaded__C)
                  00012250    00000002     hello_pem3.oem3 (.const:xdc_runtime_Text_registryModsLastId__C)
                  00012252    00000002     hello_pem3.oem3 (.const:xdc_runtime_Text_unnamedModsLastId__C)
                  00012254    00000001     hello_pem3.oem3 (.const:xdc_runtime_Error_policy__C)
                  00012255    00000001     hello_pem3.oem3 (.const:xdc_runtime_Text_charTab__A)

.cinit     0    00012258    000003e8     
                  00012258    000003c0     (.cinit..data.load) [load image, compression = lzss]
                  00012618    0000000c     (__TI_handler_table)
                  00012624    00000004     --HOLE-- [fill = 0]
                  00012628    00000008     (.cinit..bss.load) [load image, compression = zero_init]
                  00012630    00000010     (__TI_cinit_table)

.init_array 
*          0    00000000    00000000     UNINITIALIZED

.ccfg      0    0001ffa8    00000058     
                  0001ffa8    00000058     ccfg.obj (.ccfg:retain)

.bss       0    20000100    00002f5e     UNINITIALIZED
                  20000100    00000400     main.obj (.bss:txDataTaskStack)
                  20000500    00000400     (.common:ti_uia_loggers_LoggerStopMode_Instance_State_0_packetArray__A)
                  20000900    00000400     (.common:ti_uia_loggers_LoggerStopMode_Instance_State_1_packetArray__A)
                  20000d00    000002d0     rf_multiMode_cc13x0.aem3 : RFCC26XX_multiMode.oem3 (.bss:$O1$$)
                  20000fd0    00000200     hello_pem3.oem3 (.bss:taskStackSection)
                  200011d0    00000200     (.common:xdc_runtime_SysMin_Module_State_0_outbuf__A)
                  200013d0    000001c4     main.obj (.bss:accelTaskStack)
                  20001594    000001c4     main.obj (.bss:adc1TaskStack)
                  20001758    000001c4     main.obj (.bss:calibrationTaskStack)
                  2000191c    000001c4     main.obj (.bss:gyroTaskStack)
                  20001ae0    000001c4     main.obj (.bss:magTaskStack)
                  20001ca4    00000190     main.obj (.bss:initializationTaskStack)
                  20001e34    0000012c     main.obj (.bss:rxBeaconTaskStack)
                  20001f60    0000012c     main.obj (.bss:rxRestartTaskStack)
                  2000208c    0000012c     (.common:uartCC26XXObjects)
                  200021b8    00000120     rtsv7M3_T_le_eabi.lib : trgmsg.obj (.bss:_CIOBUF_)
                  200022d8    00000110     drivers_cc13x0.aem3 : PINCC26XX.oem3 (.bss:$O1$$)
                  200023e8    000000e0     (.common:i2cCC26xxObjects)
                  200024c8    000000dc     (.common:adcCC26xxObjects)
                  200025a4    00000004     (.common:ClockP_tickPeriod)
                  200025a8    000000c8     EasyLink.obj (.bss:rfObject)
                  20002670    000000c8     (.common:ti_sysbios_family_arm_m3_Hwi_dispatchTable)
                  20002738    00000098     EasyLink.obj (.bss:rxBuffer)
                  200027d0    00000098     EasyLink.obj (.bss:rxPacket$1)
                  20002868    0000008c     EasyLink.obj (.bss:txBuffer)
                  200028f4    00000080     CC1310_LAUNCHXL.obj (.bss:uartStringBuf)
                  20002974    00000050     (.common:accelTask)
                  200029c4    00000050     (.common:adc1Task)
                  20002a14    00000050     (.common:calibrationTask)
                  20002a64    00000050     (.common:gyroTask)
                  20002ab4    00000050     (.common:initializationTask)
                  20002b04    00000050     (.common:magTask)
                  20002b54    00000050     (.common:rxBeaconTask)
                  20002ba4    00000050     (.common:rxRestartTask)
                  20002bf4    00000050     (.common:txDataTask)
                  20002c44    00000030     EasyLink.obj (.bss:EasyLink_cmdPropRxAdv)
                  20002c74    00000030     main.obj (.bss)
                  20002ca4    00000028     EasyLink.obj (.bss:EasyLink_cmdPropRadioSetup)
                  20002ccc    00000028     (.common:watchdogCC26XXObjects)
                  20002cf4    0000000c     main.obj (.bss:pinState)
                  20002d00    00000030     (.common:ti_uia_loggers_LoggerStopMode_Instance_State_0_hdr__A)
                  20002d30    00000026     (.common:settings)
                  20002d56    00000002     drivers_cc13x0.aem3 : UARTCC26XX.oem3 (.bss)
                  20002d58    00000024     (.common:clk0Struct)
                  20002d7c    00000004     (.common:MXN)
                  20002d80    00000030     (.common:ti_uia_loggers_LoggerStopMode_Instance_State_1_hdr__A)
                  20002db0    0000001c     rtsv7M3_T_le_eabi.lib : vla_alloc.obj (.bss:$O1$$)
                  20002dcc    0000001c     main.obj (.bss:accelSemaphore)
                  20002de8    0000001c     main.obj (.bss:batonSemaphore)
                  20002e04    0000001c     main.obj (.bss:calibSemaphore)
                  20002e20    0000001c     main.obj (.bss:gyroSemaphore)
                  20002e3c    0000001c     main.obj (.bss:initSemaphore)
                  20002e58    0000001c     main.obj (.bss:magSemaphore)
                  20002e74    0000001c     main.obj (.bss:readSemaphore)
                  20002e90    0000001c     EasyLink.obj (.bss:rfParams)
                  20002eac    0000001c     main.obj (.bss:rxBeaconSemaphore)
                  20002ec8    0000001c     main.obj (.bss:rxRestartSemaphore)
                  20002ee4    0000001c     main.obj (.bss:txDataSemaphore)
                  20002f00    0000001c     (.common:i2cTransaction)
                  20002f1c    00000018     EasyLink.obj (.bss:EasyLink_cmdFs)
                  20002f34    00000018     EasyLink.obj (.bss:EasyLink_cmdPropTx)
                  20002f4c    00000014     driverlib.lib : osc.obj (.bss:oscHfGlobals)
                  20002f60    00000014     (.common:Connections)
                  20002f74    00000010     EasyLink.obj (.bss)
                  20002f84    00000010     EasyLink.obj (.bss:EasyLink_RF_prop)
                  20002f94    00000010     (.common:i2cParams)
                  20002fa4    0000000c     EasyLink.obj (.bss:rxStatistics)
                  20002fb0    0000000c     (.common:aBias)
                  20002fbc    0000000c     (.common:displayUartObject)
                  20002fc8    0000000c     (.common:gBias)
                  20002fd4    0000000c     (.common:mBias)
                  20002fe0    00000008     dpl_cc13x0.aem3 : PowerCC26XX_tirtos.oem3 (.bss:$O1$$)
                  20002fe8    00000008     EasyLink.obj (.bss:dataQueue)
                  20002ff0    00000008     rtsv7M3_T_le_eabi.lib : trgdrv.obj (.bss:parmbuf)
                  20002ff8    00000008     driverlib.lib : sys_ctrl.obj (.bss:powerQualGlobals)
                  20003000    00000008     (.common:aBiasRaw)
                  20003008    00000008     (.common:gBiasRaw)
                  20003010    00000008     (.common:mBiasRaw)
                  20003018    00000008     (.common:params)
                  20003020    00000004     (.common:MYN)
                  20003024    00000004     (.common:MZN)
                  20003028    00000004     (.common:aRes)
                  2000302c    00000004     (.common:adc1)
                  20003030    00000004     (.common:adcValue1MicroVolt)
                  20003034    00000004     (.common:gRes)
                  20003038    00000004     (.common:i2c)
                  2000303c    00000004     (.common:mRes)
                  20003040    00000004     (.common:watchdogHandle)
                  20003044    00000002     rf_multiMode_cc13x0.aem3 : RFCC26XX_multiMode.oem3 (.bss)
                  20003046    00000002     (.common:adcValue1)
                  20003048    00000002     (.common:ax)
                  2000304a    00000002     (.common:ay)
                  2000304c    00000002     (.common:az)
                  2000304e    00000002     (.common:gx)
                  20003050    00000002     (.common:gy)
                  20003052    00000002     (.common:gz)
                  20003054    00000002     (.common:mx)
                  20003056    00000002     (.common:my)
                  20003058    00000002     (.common:mz)
                  2000305a    00000001     (.common:_autoCalc)
                  2000305b    00000001     (.common:_mAddress)
                  2000305c    00000001     (.common:_xgAddress)
                  2000305d    00000001     (.common:driverlib_release_0_48919)

.data      0    20004060    00000ab0     UNINITIALIZED
                  20004060    00000114     drivers_cc13x0.aem3 : PowerCC26XX.oem3 (.data:PowerCC26XX_module)
                  20004174    00000098     main.obj (.data:globalPacket)
                  2000420c    00000068     smartrf_settings_predefined.obj (.data:pOverrides_sl_lr)
                  20004274    00000068     hello_pem3.oem3 (.data:ti_uia_loggers_LoggerStopMode_Object__table__V)
                  200042dc    00000060     smartrf_settings_predefined.obj (.data:pOverrides_hsm)
                  2000433c    0000005c     smartrf_settings_predefined.obj (.data:pOverrides_lrm)
                  20004398    0000005c     smartrf_settings_predefined.obj (.data:pOverrides_ook)
                  200043f4    00000058     smartrf_settings.obj (.data:pOverrides)
                  2000444c    00000058     smartrf_settings_predefined.obj (.data:pOverrides_fsk)
                  200044a4    0000004c     hello_pem3.oem3 (.data:ti_sysbios_knl_Task_Object__table__V)
                  200044f0    00000048     hello_pem3.oem3 (.data:ti_sysbios_family_arm_cc26xx_Timer_Object__table__V)
                  20004538    00000044     smartrf_settings_predefined.obj (.data)
                  2000457c    00000044     hello_pem3.oem3 (.data:ti_sysbios_knl_Task_Module__state__V)
                  200045c0    00000038     hello_pem3.oem3 (.data:ti_sysbios_gates_GateMutex_Object__table__V)
                  200045f8    00000034     hello_pem3.oem3 (.data:ti_sysbios_family_arm_m3_Hwi_Module__state__V)
                  2000462c    00000030     smartrf_settings_predefined.obj (.data:RF_cmdPropRxAdv_preDef)
                  2000465c    00000030     hello_pem3.oem3 (.data:ti_sysbios_knl_Swi_Module_State_0_readyQ__A)
                  2000468c    00000030     hello_pem3.oem3 (.data:ti_sysbios_knl_Swi_Object__table__V)
                  200046bc    00000030     hello_pem3.oem3 (.data:ti_sysbios_knl_Task_Module_State_0_readyQ__A)
                  200046ec    0000002c     hello_pem3.oem3 (.data:ti_sysbios_knl_Clock_Module__state__V)
                  20004718    00000028     smartrf_settings.obj (.data:RF_cmdPropRadioDivSetup)
                  20004740    00000028     smartrf_settings_predefined.obj (.data:RF_cmdPropRadioDivSetup_fsk)
                  20004768    00000028     smartrf_settings_predefined.obj (.data:RF_cmdPropRadioDivSetup_lrm)
                  20004790    00000028     smartrf_settings_predefined.obj (.data:RF_cmdPropRadioDivSetup_ook)
                  200047b8    00000028     smartrf_settings_predefined.obj (.data:RF_cmdPropRadioDivSetup_sl_lr)
                  200047e0    00000024     smartrf_settings_predefined.obj (.data:RF_cmdRxHS)
                  20004804    00000024     hello_pem3.oem3 (.data:ti_sysbios_BIOS_Module__state__V)
                  20004828    00000020     drivers_cc13x0.aem3 : ADCCC26XX.oem3 (.data:$O1$$)
                  20004848    00000020     hello_pem3.oem3 (.data:ti_sysbios_knl_Clock_Object__table__V)
                  20004868    00000020     hello_pem3.oem3 (.data:xdc_runtime_Error_IgnoreBlock)
                  20004888    0000001c     hello_pem3.oem3 (.data:ti_sysbios_knl_Swi_Module__state__V)
                  200048a4    00000018     smartrf_settings.obj (.data:RF_cmdFs)
                  200048bc    00000018     smartrf_settings_predefined.obj (.data:RF_cmdFs_preDef)
                  200048d4    00000018     smartrf_settings.obj (.data:RF_cmdPropTx)
                  200048ec    00000018     smartrf_settings_predefined.obj (.data:RF_cmdPropTx_preDef)
                  20004904    00000018     smartrf_settings_predefined.obj (.data:RF_cmdRadioSetup_hsm)
                  2000491c    00000018     EasyLink.obj (.data:addrFilterTable)
                  20004934    00000018     main.obj (.data)
                  2000494c    00000018     main.obj (.data:pinTable)
                  20004964    00000018     smartrf_settings_predefined.obj (.data:shapeovr)
                  2000497c    00000018     hello_pem3.oem3 (.data:ti_sysbios_family_arm_m3_Hwi_Object__table__V)
                  20004994    00000018     hello_pem3.oem3 (.data:ti_sysbios_heaps_HeapMem_Object__table__V)
                  200049ac    00000014     smartrf_settings_predefined.obj (.data:RF_cmdTxHS)
                  200049c0    00000010     main.obj (.data:AddressList)
                  200049d0    00000010     smartrf_settings.obj (.data:RF_prop)
                  200049e0    00000010     smartrf_settings_predefined.obj (.data:RF_prop_fsk)
                  200049f0    00000010     smartrf_settings_predefined.obj (.data:RF_prop_hsm)
                  20004a00    00000010     smartrf_settings_predefined.obj (.data:RF_prop_lrm)
                  20004a10    00000010     smartrf_settings_predefined.obj (.data:RF_prop_ook)
                  20004a20    00000010     smartrf_settings_predefined.obj (.data:RF_prop_sl_lr)
                  20004a30    0000000e     EasyLink.obj (.data)
                  20004a3e    00000002     hello_pem3.oem3 (.data:ti_sysbios_family_arm_m3_Hwi_Module_State_0_excActive__A)
                  20004a40    0000000c     rtsv7M3_T_le_eabi.lib : exit.obj (.data:$O1$$)
                  20004a4c    0000000c     hello_pem3.oem3 (.data:ti_sysbios_knl_Task_Module__root__V)
                  20004a58    0000000c     hello_pem3.oem3 (.data:ti_uia_runtime_QueueDescriptor_Module__state__V)
                  20004a64    0000000c     hello_pem3.oem3 (.data:xdc_runtime_SysMin_Module__state__V)
                  20004a70    00000008     rtsv7M3_T_le_eabi.lib : _lock.obj (.data:$O1$$)
                  20004a78    00000008     ti.uia.runtime.aem3 : QueueDescriptor.oem3 (.data)
                  20004a80    00000008     hello_pem3.oem3 (.data:ti_sysbios_family_arm_cc26xx_Timer_Module__state__V)
                  20004a88    00000008     hello_pem3.oem3 (.data:ti_sysbios_family_arm_m3_Hwi_Module__root__V)
                  20004a90    00000008     hello_pem3.oem3 (.data:ti_sysbios_gates_GateHwi_Module__root__V)
                  20004a98    00000008     hello_pem3.oem3 (.data:ti_sysbios_gates_GateMutex_Module__root__V)
                  20004aa0    00000008     hello_pem3.oem3 (.data:ti_sysbios_heaps_HeapMem_Module__root__V)
                  20004aa8    00000008     hello_pem3.oem3 (.data:ti_sysbios_knl_Clock_Module__root__V)
                  20004ab0    00000008     hello_pem3.oem3 (.data:ti_sysbios_knl_Queue_Module__root__V)
                  20004ab8    00000008     hello_pem3.oem3 (.data:ti_sysbios_knl_Semaphore_Module__root__V)
                  20004ac0    00000008     hello_pem3.oem3 (.data:ti_sysbios_knl_Swi_Module__root__V)
                  20004ac8    00000008     hello_pem3.oem3 (.data:ti_uia_loggers_LoggerStopMode_Module__root__V)
                  20004ad0    00000008     hello_pem3.oem3 (.data:xdc_runtime_Registry_Module__state__V)
                  20004ad8    00000008     hello_pem3.oem3 (.data:xdc_runtime_Startup_Module__state__V)
                  20004ae0    00000008     hello_pem3.oem3 (.data:xdc_runtime_System_Module_State_0_atexitHandlers__A)
                  20004ae8    00000008     hello_pem3.oem3 (.data:xdc_runtime_System_Module__state__V)
                  20004af0    00000004     rtsv7M3_T_le_eabi.lib : stkdepth_vars.obj (.data)
                  20004af4    00000004     hello_pem3.oem3 (.data:ti_sysbios_family_arm_cc26xx_TimestampProvider_Module__state__V)
                  20004af8    00000004     hello_pem3.oem3 (.data:ti_sysbios_family_arm_m3_Hwi_Module_State_0_excContext__A)
                  20004afc    00000004     hello_pem3.oem3 (.data:ti_sysbios_family_arm_m3_Hwi_Module_State_0_excStack__A)
                  20004b00    00000004     hello_pem3.oem3 (.data:ti_sysbios_gates_GateHwi_Object__table__V)
                  20004b04    00000004     hello_pem3.oem3 (.data:ti_sysbios_knl_Task_Module_State_0_idleTask__A)
                  20004b08    00000004     hello_pem3.oem3 (.data:xdc_runtime_Memory_Module__state__V)
                  20004b0c    00000001     drivers_cc13x0.aem3 : ADC.oem3 (.data)
                  20004b0d    00000001                         : I2C.oem3 (.data)
                  20004b0e    00000001                         : UART.oem3 (.data)
                  20004b0f    00000001                         : Watchdog.oem3 (.data)

.priheap   0    20003060    00001000     UNINITIALIZED
                  20003060    00001000     --HOLE--

.stack     0    20004c00    00000400     UNINITIALIZED
                  20004c00    00000400     --HOLE--

.bootVecs 
*          0    00000000    00000008     DSECT
                  00000000    00000008     boot.aem3 : boot.oem3 (.bootVecs)

.resetVecs 
*          0    00000000    0000003c     
                  00000000    0000003c     hello_pem3.oem3 (.resetVecs)

.vecs      0    20000000    000000c8     NOLOAD SECTION
                  20000000    000000c8     hello_pem3.oem3 (.vecs)

xdc.meta   0    00000000    000000f0     COPY SECTION
                  00000000    000000f0     hello_pem3.oem3 (xdc.meta)

xdc.noload 
*          0    00000000    00000000     COPY SECTION

.binit     0    00000000    00000000     

MODULE SUMMARY

       Module                            code    ro data   rw data
       ------                            ----    -------   -------
    ./
       main.obj                          6196    144       5829   
       CC1310_LAUNCHXL.obj               24      422       924    
       ccfg.obj                          0       88        0      
    +--+---------------------------------+-------+---------+---------+
       Total:                            6220    654       6753   
                                                                  
    ./easylink/
       EasyLink.obj                      2846    28        898    
    +--+---------------------------------+-------+---------+---------+
       Total:                            2846    28        898    
                                                                  
    ./smartrf_settings/
       smartrf_settings_predefined.obj   2728    14833     980    
       smartrf_settings.obj              446     2404      192    
    +--+---------------------------------+-------+---------+---------+
       Total:                            3174    17237     1172   
                                                                  
    /Users/hunteradams/Documents/MSP430/workspace/Sprite/Debug/configPkg/package/cfg/
       hello_pem3.oem3                   3750    1586      4534   
    +--+---------------------------------+-------+---------+---------+
       Total:                            3750    1586      4534   
                                                                  
    /Applications/ccsv7/tools/compiler/ti-cgt-arm_16.9.3.LTS/lib/rtsv7M3_T_le_eabi.lib
       trgdrv.obj                        804     0         8      
       vla_alloc.obj                     584     0         28     
       ull_div_t2.obj                    500     0         0      
       fd_add_t2.obj                     438     0         0      
       trgmsg.obj                        104     0         288    
       fd_cmp_t2.obj                     268     0         0      
       fd_mul_t2.obj                     252     0         0      
       memcpy_t2.obj                     156     0         0      
       fs_div_t2.obj                     146     0         0      
       fs_mul_t2.obj                     122     0         0      
       memset_t2.obj                     122     0         0      
       copy_decompress_lzss.obj          104     0         0      
       exit.obj                          84      0         12     
       cpy_tbl.obj                       76      0         0      
       fd_toi_t2.obj                     72      0         0      
       fd_tou_t2.obj                     68      0         0      
       u_divt2.obj                       64      0         0      
       fs_tod_t2.obj                     56      0         0      
       fs_toi_t2.obj                     56      0         0      
       i_tofs_t2.obj                     56      0         0      
       i_tofd_t2.obj                     46      0         0      
       _lock.obj                         20      0         8      
       args_main.obj                     24      0         0      
       ll_mul_t2.obj                     24      0         0      
       strcpy.obj                        22      0         0      
       strlen.obj                        20      0         0      
       copy_decompress_none.obj          14      0         0      
       copy_zero_init.obj                12      0         0      
       error.obj                         4       0         0      
       stkdepth_vars.obj                 0       0         4      
       i_div0.obj                        2       0         0      
    +--+---------------------------------+-------+---------+---------+
       Total:                            4320    0         348    
                                                                  
    /Applications/ti/simplelink_cc13x0_sdk_1_40_00_10/kernel/tirtos/packages/ti/dpl/lib/dpl_cc13x0.aem3
       PowerCC26XX_tirtos.oem3           276     0         8      
       SemaphoreP_tirtos.oem3            126     0         0      
       ClockP_tirtos.oem3                118     0         4      
       HwiP_tirtos.oem3                  108     0         0      
       SwiP_tirtos.oem3                  96      0         0      
       SystemP_tirtos.oem3               4       0         0      
    +--+---------------------------------+-------+---------+---------+
       Total:                            728     0         12     
                                                                  
    /Applications/ti/simplelink_cc13x0_sdk_1_40_00_10/kernel/tirtos/packages/ti/targets/arm/rtsarm/lib/auto_init.aem3
       auto_init.oem3                    160     0         0      
    +--+---------------------------------+-------+---------+---------+
       Total:                            160     0         0      
                                                                  
    /Applications/ti/simplelink_cc13x0_sdk_1_40_00_10/kernel/tirtos/packages/ti/targets/arm/rtsarm/lib/boot.aem3
       boot.oem3                         68      0         0      
    +--+---------------------------------+-------+---------+---------+
       Total:                            68      0         0      
                                                                  
    /Applications/ti/simplelink_cc13x0_sdk_1_40_00_10/kernel/tirtos/packages/ti/uia/loggers/lib/release/ti.uia.loggers.aem3
       LoggerStopMode.oem3               552     0         0      
    +--+---------------------------------+-------+---------+---------+
       Total:                            552     0         0      
                                                                  
    /Applications/ti/simplelink_cc13x0_sdk_1_40_00_10/kernel/tirtos/packages/ti/uia/runtime/lib/release/ti.uia.runtime.aem3
       QueueDescriptor.oem3              116     0         8      
    +--+---------------------------------+-------+---------+---------+
       Total:                            116     0         8      
                                                                  
    /Applications/ti/simplelink_cc13x0_sdk_1_40_00_10/source/ti/devices/cc13x0/driverlib/bin/ccs/driverlib.lib
       setup_rom.obj                     1468    0         0      
       sys_ctrl.obj                      748     0         8      
       rfc.obj                           644     24        0      
       aux_adc.obj                       530     0         0      
       osc.obj                           388     0         20     
       setup.obj                         364     0         0      
       chipinfo.obj                      182     0         0      
       adi.obj                           88      0         0      
       aon_rtc.obj                       44      0         0      
       ddi.obj                           44      0         0      
       aon_batmon.obj                    40      0         0      
       cpu.obj                           30      0         0      
       vims.obj                          14      0         0      
       driverlib_release.obj             0       0         1      
    +--+---------------------------------+-------+---------+---------+
       Total:                            4584    24        29     
                                                                  
    /Applications/ti/simplelink_cc13x0_sdk_1_40_00_10/source/ti/display/lib/display.aem3
       DisplayUart.oem3                  184     32        0      
       Display.oem3                      174     1         0      
    +--+---------------------------------+-------+---------+---------+
       Total:                            358     33        0      
                                                                  
    /Applications/ti/simplelink_cc13x0_sdk_1_40_00_10/source/ti/drivers/lib/drivers_cc13x0.aem3
       UARTCC26XX.oem3                   2606    104       2      
       PowerCC26XX.oem3                  2136    76        276    
       PINCC26XX.oem3                    1302    0         272    
       I2CCC26XX.oem3                    1396    32        0      
       PowerCC26XX_calibrateRCOSC.oem3   1380    0         0      
       ADCCC26XX.oem3                    470     24        32     
       WatchdogCC26XX.oem3               276     28        0      
       UART.oem3                         182     36        1      
       Watchdog.oem3                     164     12        1      
       I2C.oem3                          154     16        1      
       ADC.oem3                          158     8         1      
       RingBuf.oem3                      148     0         0      
       List.oem3                         76      0         0      
    +--+---------------------------------+-------+---------+---------+
       Total:                            10448   336       586    
                                                                  
    /Applications/ti/simplelink_cc13x0_sdk_1_40_00_10/source/ti/drivers/rf/lib/rf_multiMode_cc13x0.aem3
       RFCC26XX_multiMode.oem3           6380    28        722    
    +--+---------------------------------+-------+---------+---------+
       Total:                            6380    28        722    
                                                                  
    /Users/hunteradams/Documents/MSP430/workspace/Sprite/src/sysbios/sysbios.aem3
       BIOS.obj                          10309   0         0      
       m3_Hwi_asm.obj                    262     0         0      
       m3_TaskSupport_asm.obj            108     0         0      
       m3_Hwi_asm_switch.obj             102     0         0      
    +--+---------------------------------+-------+---------+---------+
       Total:                            10781   0         0      
                                                                  
       Stack:                            0       0         1024   
       Linker Generated:                 0       996       0      
    +--+---------------------------------+-------+---------+---------+
       Grand Total:                      54485   20922     16086  


LINKER GENERATED COPY TABLES

__TI_cinit_table @ 00012630 records: 2, size/record: 8, table size: 16
	.data: load addr=00012258, load size=000003c0 bytes, run addr=20004060, run size=00000ab0 bytes, compression=lzss
	.bss: load addr=00012628, load size=00000008 bytes, run addr=20000100, run size=00002f5e bytes, compression=zero_init


LINKER GENERATED HANDLER TABLE

__TI_handler_table @ 00012618 records: 3, size/record: 4, table size: 12
	index: 0, handler: __TI_decompress_lzss
	index: 1, handler: __TI_decompress_none
	index: 2, handler: __TI_zero_init


GLOBAL SYMBOLS: SORTED ALPHABETICALLY BY Name 

address   name                                                            
-------   ----                                                            
00012040  ADCBuf_count                                                    
0000acc1  ADCCC26XX_close                                                 
0000d3b9  ADCCC26XX_control                                               
000060d9  ADCCC26XX_convert                                               
0000a845  ADCCC26XX_convertToMicroVolts                                   
00011f08  ADCCC26XX_fxnTable                                              
0000d349  ADCCC26XX_init                                                  
00008049  ADCCC26XX_open                                                  
0000d2d1  ADC_Params_init                                                 
000118b8  ADC_config                                                      
0000d2db  ADC_convert                                                     
0000d2e5  ADC_convertToMicroVolts                                         
00012041  ADC_count                                                       
0001204c  ADC_defaultParams                                               
0000a885  ADC_init                                                        
0000a8c5  ADC_open                                                        
20004938  AXN                                                             
2000493c  AYN                                                             
20004940  AZN                                                             
00011b6c  BoardGpioInitTable                                              
00009bf1  C$$EXIT                                                         
00008e83  C$$IO$$                                                         
0000c915  CC1310_LAUNCHXL_initGeneral                                     
0000d3bf  ClockP_Params_init                                              
0000a129  ClockP_construct                                                
0000d42f  ClockP_destruct                                                 
0000d433  ClockP_getCpuFreq                                               
0000c451  ClockP_getSystemTicks                                           
0000d437  ClockP_getTimeout                                               
0000ced1  ClockP_isActive                                                 
0000d43b  ClockP_setTimeout                                               
0000d43f  ClockP_start                                                    
0000d443  ClockP_stop                                                     
200025a4  ClockP_tickPeriod                                               
20002f60  Connections                                                     
000021af  DisplayUartMin_clear                                            
00004ee3  DisplayUartMin_clearLines                                       
0000cc8d  DisplayUartMin_close                                            
0000d3c5  DisplayUartMin_control                                          
00011d38  DisplayUartMin_fxnTable                                         
0000d3cb  DisplayUartMin_getType                                          
0000713b  DisplayUartMin_init                                             
0000a0dd  DisplayUartMin_open                                             
0000a489  DisplayUartMin_vprintf                                          
00011ff8  Display_config                                                  
00012042  Display_count                                                   
000119e9  Display_defaultParams                                           
0000be25  Display_doInit                                                  
000095b1  Display_doOpen                                                  
0000bda5  Display_doPrintf                                                
00007741  EasyLink_abort                                                  
00005a31  EasyLink_enableRxAddrFilter                                     
00000489  EasyLink_init                                                   
00002b15  EasyLink_receiveAsync                                           
000021b1  EasyLink_setRfPwr                                               
00003729  EasyLink_transmit                                               
00001000  HEAPSIZE                                                        
00000e63  HOSTclock                                                       
00000e2b  HOSTclose                                                       
00000ded  HOSTgetenv                                                      
00000d91  HOSTlseek                                                       
00000d3f  HOSTopen                                                        
00000cf3  HOSTread                                                        
00000c95  HOSTrename                                                      
00000c5b  HOSTtime                                                        
00000c0d  HOSTtime64                                                      
00000bd5  HOSTunlink                                                      
00000b89  HOSTwrite                                                       
0000cee1  HwiP_Params_init                                                
0000a905  HwiP_construct                                                  
0000d447  HwiP_destruct                                                   
0000d44b  HwiP_disable                                                    
0000d44f  HwiP_disableInterrupt                                           
0000d453  HwiP_enableInterrupt                                            
0000d457  HwiP_plug                                                       
0000d45b  HwiP_post                                                       
0000d3fb  HwiP_restore                                                    
0000d45f  HwiP_setFunc                                                    
00007be1  I2CCC26XX_cancel                                                
00008a45  I2CCC26XX_close                                                 
0000d3d1  I2CCC26XX_control                                               
00011f20  I2CCC26XX_fxnTable                                              
0000d2ef  I2CCC26XX_init                                                  
00003099  I2CCC26XX_open                                                  
000064ad  I2CCC26XX_transfer                                              
0000cef1  I2C_Params_init                                                 
00012004  I2C_config                                                      
00012043  I2C_count                                                       
00011fd8  I2C_defaultParams                                               
0000a945  I2C_init                                                        
0000a985  I2C_open                                                        
0000d2f9  I2C_transfer                                                    
00008aad  I2CreadByte                                                     
000066ed  I2CreadBytes                                                    
00008b15  I2CwriteByte                                                    
00008559  LSM9DS1begin                                                    
00001c39  LSM9DS1init                                                     
0000d175  List_empty                                                      
0000d463  List_head                                                       
0000d467  List_next                                                       
0000c1a9  List_put                                                        
0000cca3  List_remove                                                     
20002d7c  MXN                                                             
20003020  MYN                                                             
20003024  MZN                                                             
0000be4d  NOROM_AONBatMonTemperatureGetDegC                               
0000cdad  NOROM_AONRTCCurrent64BitValueGet                                
0000c92d  NOROM_AONRTCCurrentCompareValueGet                              
0000c1cb  NOROM_AUXADCAdjustValueForGainAndOffset                         
000077d5  NOROM_AUXADCDisable                                             
0000b421  NOROM_AUXADCDisableInputScaling                                 
0000656d  NOROM_AUXADCEnableSync                                          
0000cf01  NOROM_AUXADCFlushFifo                                           
0000c5cd  NOROM_AUXADCGetAdjustmentGain                                   
0000c945  NOROM_AUXADCGetAdjustmentOffset                                 
0000cf11  NOROM_AUXADCReadFifo                                            
0000cdc1  NOROM_AUXADCValueToMicrovolts                                   
0000d181  NOROM_CPUcpsid                                                  
0000d18d  NOROM_CPUcpsie                                                  
0000d3d7  NOROM_CPUdelay                                                  
0000c5e9  NOROM_ChipInfo_GetChipFamily                                    
0000b691  NOROM_ChipInfo_GetChipType                                      
0000acfd  NOROM_ChipInfo_GetHwRevision                                    
0000c95d  NOROM_ChipInfo_GetPackageType                                   
0000bb69  NOROM_DDI32RegWrite                                             
0000bb95  NOROM_OSCClockSourceGet                                         
000092b1  NOROM_OSCClockSourceSet                                         
00009059  NOROM_OSCHF_AttemptToSwitchToXosc                               
0000b455  NOROM_OSCHF_SwitchToRcOscTurnOffXosc                            
0000c975  NOROM_OSCHF_TurnOnXosc                                          
0000ad39  NOROM_OSC_HPOSCRelativeFrequencyOffsetGet                       
0000d199  NOROM_OSC_HPOSCRelativeFrequencyOffsetToRFCoreFormatConvert     
0000c231  NOROM_RFCAdi3VcoLdoVoltageMode                                  
0000bbc1  NOROM_RFCCPEPatchReset                                          
0000c98d  NOROM_RFCCpeIntGetAndClear                                      
0000bf8d  NOROM_RFCDoorbellSendTo                                         
00005879  NOROM_RFCOverrideUpdate                                         
00005e69  NOROM_RFCRfTrimRead                                             
0000cf21  NOROM_RFCRfTrimSet                                              
0000ad75  NOROM_RFCSynthPowerDown                                         
00006eb5  NOROM_SetupAfterColdResetWakeupFromShutDownCfg1                 
000054d9  NOROM_SetupAfterColdResetWakeupFromShutDownCfg2                 
00003ad1  NOROM_SetupAfterColdResetWakeupFromShutDownCfg3                 
0000c9a5  NOROM_SetupGetTrimForAdcShModeEn                                
0000c9bd  NOROM_SetupGetTrimForAdcShVbufEn                                
00008b7d  NOROM_SetupGetTrimForAmpcompCtrl                                
0000c9d5  NOROM_SetupGetTrimForAmpcompTh1                                 
0000c605  NOROM_SetupGetTrimForAmpcompTh2                                 
00008be5  NOROM_SetupGetTrimForAnabypassValue1                            
0000c9ed  NOROM_SetupGetTrimForDblrLoopFilterResetVoltage                 
0000bbed  NOROM_SetupGetTrimForRadcExtCfg                                 
0000ca05  NOROM_SetupGetTrimForRcOscLfIBiasTrim                           
0000c621  NOROM_SetupGetTrimForRcOscLfRtuneCtuneTrim                      
0000c251  NOROM_SetupGetTrimForXoscHfCtl                                  
0000cf31  NOROM_SetupGetTrimForXoscHfFastStart                            
0000cf41  NOROM_SetupGetTrimForXoscHfIbiastherm                           
0000ca1d  NOROM_SetupGetTrimForXoscLfRegulatorAndCmirrwrRatio             
0000b6c1  NOROM_SetupSetAonRtcSubSecInc                                   
00009c99  NOROM_SetupSetCacheModeAccordingToCcfgSetting                   
00008649  NOROM_SetupSetVddrLevel                                         
00006d65  NOROM_SetupTrimDevice                                           
0000960d  NOROM_SysCtrlAdjustRechargeAfterPowerDown                       
00001401  NOROM_SysCtrlSetRechargeBeforePowerDown                         
00008c4d  NOROM_SysCtrl_DCDC_VoltageConditionalControl                    
0000ccb9  NOROM_ThisLibraryIsFor_CC13x0_HwRev20AndLater_HaltIfViolated    
0000d121  NOROM_VIMSModeGet                                               
00012044  NVS_count                                                       
0000bfb1  PINCC26XX_getPinCount                                           
00012054  PINCC26XX_hwAttrs                                               
0000bc19  PINCC26XX_setMux                                                
2000236c  PIN_HandleTable                                                 
200022d8  PIN_NumPins                                                     
0000c571  PIN_close                                                       
0000cdd5  PIN_getOutputValue                                              
00002681  PIN_init                                                        
00007449  PIN_open                                                        
0000d1a5  PIN_registerIntCb                                               
000098e9  PIN_remove                                                      
0000b489  PIN_setConfig                                                   
0000a171  PIN_setOutputEnable                                             
0000af19  PIN_setOutputValue                                              
00012045  PWM_count                                                       
00009669  PowerCC26XX_RCOSC_clockFunc                                     
00000ead  PowerCC26XX_auxISR                                              
000096c5  PowerCC26XX_calibrate                                           
00011fe8  PowerCC26XX_config                                              
000024f1  PowerCC26XX_doCalibrate                                         
0000896d  PowerCC26XX_initiateCalibration                                 
0000adb1  PowerCC26XX_isStableXOSC_HF                                     
20004060  PowerCC26XX_module                                              
0000c271  PowerCC26XX_schedulerDisable                                    
0000c291  PowerCC26XX_schedulerRestore                                    
00005f3d  PowerCC26XX_standbyPolicy                                       
20002fe4  PowerCC26XX_swiKey                                              
0000aded  PowerCC26XX_switchXOSC_HF                                       
20002fe0  PowerCC26XX_taskKey                                             
0000d1b1  Power_getConstraintMask                                         
0000d1bd  Power_getDependencyCount                                        
0000c58f  Power_getTransitionLatency                                      
0000ca35  Power_idleFunc                                                  
00003c01  Power_init                                                      
0000be75  Power_registerNotify                                            
0000b4bd  Power_releaseConstraint                                         
000067a9  Power_releaseDependency                                         
0000b6f1  Power_setConstraint                                             
00006b4d  Power_setDependency                                             
00001629  Power_sleep                                                     
0000c2b1  Power_unregisterNotify                                          
00012088  RFCC26XX_hwAttrs                                                
0000cde9  RF_Params_init                                                  
00003341  RF_cancelCmd                                                    
00004419  RF_close                                                        
200048a4  RF_cmdFs                                                        
200048bc  RF_cmdFs_preDef                                                 
20004718  RF_cmdPropRadioDivSetup                                         
20004740  RF_cmdPropRadioDivSetup_fsk                                     
20004768  RF_cmdPropRadioDivSetup_lrm                                     
20004790  RF_cmdPropRadioDivSetup_ook                                     
200047b8  RF_cmdPropRadioDivSetup_sl_lr                                   
2000462c  RF_cmdPropRxAdv_preDef                                          
200048d4  RF_cmdPropTx                                                    
200048ec  RF_cmdPropTx_preDef                                             
20004904  RF_cmdRadioSetup_hsm                                            
200047e0  RF_cmdRxHS                                                      
200049ac  RF_cmdTxHS                                                      
00009aa1  RF_getCurrentTime                                               
00001845  RF_open                                                         
20004570  RF_pCmdFs_preDef                                                
20004550  RF_pCmdPropRadioDivSetup_fsk                                    
20004554  RF_pCmdPropRadioDivSetup_lrm                                    
20004558  RF_pCmdPropRadioDivSetup_ook                                    
20004560  RF_pCmdPropRadioDivSetup_sl_lr                                  
20004564  RF_pCmdPropRadioSetup_2_4G_fsk                                  
20004578  RF_pCmdPropRxAdv_preDef                                         
20004574  RF_pCmdPropTx_preDef                                            
2000455c  RF_pCmdRadioSetup_hsm                                           
2000456c  RF_pCmdRxHS                                                     
20004568  RF_pCmdTxHS                                                     
2000454c  RF_pProp_2_4G_fsk                                               
20004538  RF_pProp_fsk                                                    
20004544  RF_pProp_hsm                                                    
2000453c  RF_pProp_lrm                                                    
20004540  RF_pProp_ook                                                    
20004548  RF_pProp_sl_lr                                                  
00007d8d  RF_pendCmd                                                      
00002de9  RF_postCmd                                                      
200049d0  RF_prop                                                         
200049e0  RF_prop_fsk                                                     
200049f0  RF_prop_hsm                                                     
20004a00  RF_prop_lrm                                                     
20004a10  RF_prop_ook                                                     
20004a20  RF_prop_sl_lr                                                   
0000a515  RF_releasePowerConstraint                                       
0000ae29  RF_runCmd                                                       
0000c675  RF_setPowerConstraint                                           
0000a59d  ResetISR                                                        
0000ce89  RingBuf_construct                                               
0000ac45  RingBuf_get                                                     
0000a559  RingBuf_put                                                     
UNDEFED   SHT$$INIT_ARRAY$$Base                                           
UNDEFED   SHT$$INIT_ARRAY$$Limit                                          
00012046  SPI_count                                                       
0000b721  SafeHapiAuxAdiSelect                                            
0000be9d  SafeHapiVoid                                                    
0000bc45  SemaphoreP_constructBinary                                      
0000bc71  SemaphoreP_createBinary                                         
0000d1c9  SemaphoreP_delete                                               
0000d46f  SemaphoreP_destruct                                             
0000ce9b  SemaphoreP_pend                                                 
0000d473  SemaphoreP_post                                                 
0000cf51  SwiP_Params_init                                                
0000ae65  SwiP_construct                                                  
0000d477  SwiP_destruct                                                   
0000d47b  SwiP_disable                                                    
0000d47f  SwiP_getTrigger                                                 
0000d483  SwiP_or                                                         
0000d487  SwiP_post                                                       
0000b58d  SwiP_restore                                                    
0000d48b  SystemP_vsnprintf                                               
00007e19  UARTCC26XX_close                                                
00009311  UARTCC26XX_control                                              
00011b98  UARTCC26XX_fxnTable                                             
00004dd9  UARTCC26XX_hwiIntFxn                                            
0000ca4d  UARTCC26XX_init                                                 
00002c85  UARTCC26XX_open                                                 
00004651  UARTCC26XX_read                                                 
00008cb5  UARTCC26XX_readCancel                                           
0000d3dd  UARTCC26XX_readPolling                                          
0000afc1  UARTCC26XX_swiIntFxn                                            
000050f5  UARTCC26XX_write                                                
00007ea5  UARTCC26XX_writeCancel                                          
0000d3e3  UARTCC26XX_writePolling                                         
0000ca65  UART_Params_init                                                
0000d303  UART_close                                                      
00012010  UART_config                                                     
0000d30d  UART_control                                                    
00012047  UART_count                                                      
00011c60  UART_defaultParams                                              
0000a9c5  UART_init                                                       
0000aa05  UART_open                                                       
0000d317  UART_write                                                      
0000cf61  WatchdogCC26XX_clear                                            
00007bdf  WatchdogCC26XX_close                                            
0000d3e9  WatchdogCC26XX_control                                          
0000bec5  WatchdogCC26XX_convertMsToTicks                                 
00011ed4  WatchdogCC26XX_fxnTable                                         
0000d359  WatchdogCC26XX_init                                             
000071d9  WatchdogCC26XX_open                                             
0000b751  WatchdogCC26XX_setReload                                        
0000cf71  Watchdog_Params_init                                            
0000d321  Watchdog_clear                                                  
0001201c  Watchdog_config                                                 
00012048  Watchdog_count                                                  
00012028  Watchdog_defaultParams                                          
0000aa45  Watchdog_init                                                   
0000aa85  Watchdog_open                                                   
0000d32b  Watchdog_setReload                                              
00000000  __ASM__                                                         
200021b8  __CIOBUF_                                                       
0000006a  __ISA__                                                         
0000007c  __PLAT__                                                        
20005000  __STACK_END                                                     
00000400  __STACK_SIZE                                                    
000000a3  __TARG__                                                        
00012630  __TI_CINIT_Base                                                 
00012640  __TI_CINIT_Limit                                                
00012618  __TI_Handler_Table_Base                                         
00012624  __TI_Handler_Table_Limit                                        
00006ffd  __TI_auto_init                                                  
20004a40  __TI_cleanup_ptr                                                
00008d1d  __TI_decompress_lzss                                            
0000d12f  __TI_decompress_none                                            
20004a44  __TI_dtors_ptr                                                  
20004a48  __TI_enable_exit_profile_output                                 
ffffffff  __TI_pprof_out_hndl                                             
ffffffff  __TI_prof_data_size                                             
ffffffff  __TI_prof_data_start                                            
00008e87  __TI_readmsg                                                    
00012258  __TI_static_base__                                              
00008e55  __TI_writemsg                                                   
0000d1d5  __TI_zero_init                                                  
000000c8  __TRDR__                                                        
0000d493  __abort_execution                                               
00008159  __aeabi_cdcmpeq                                                 
00008159  __aeabi_cdcmple                                                 
000081df  __aeabi_cdrcmple                                                
0000a291  __aeabi_d2iz                                                    
0000a669  __aeabi_d2uiz                                                   
00002003  __aeabi_dadd                                                    
000051f1  __aeabi_dmul                                                    
00001ff9  __aeabi_dsub                                                    
0000b1f1  __aeabi_f2d                                                     
0000b229  __aeabi_f2iz                                                    
00007b4d  __aeabi_fdiv                                                    
00008465  __aeabi_fmul                                                    
0000bab1  __aeabi_i2d                                                     
0000b261  __aeabi_i2f                                                     
0000c5cb  __aeabi_idiv0                                                   
0000cadd  __aeabi_lmul                                                    
000084df  __aeabi_memclr                                                  
000084df  __aeabi_memclr4                                                 
000084df  __aeabi_memclr8                                                 
00007311  __aeabi_memcpy                                                  
00007311  __aeabi_memcpy4                                                 
00007311  __aeabi_memcpy8                                                 
000084e1  __aeabi_memset                                                  
000084e1  __aeabi_memset4                                                 
000084e1  __aeabi_memset8                                                 
0000ab85  __aeabi_uidiv                                                   
0000ab85  __aeabi_uidivmod                                                
00001a45  __aeabi_uldivmod                                                
ffffffff  __binit__                                                       
ffffffff  __c_args__                                                      
0001ffa8  __ccfg                                                          
20004060  __primary_heap_end__                                            
20003060  __primary_heap_start__                                          
20004c00  __stack                                                         
000012ab  __vla_alloc                                                     
000011b9  __vla_dealloc                                                   
0000122b  __vla_dealloc_eh                                                
0000cac5  _args_main                                                      
2000305a  _autoCalc                                                       
0000a59d  _c_int00                                                        
20004a70  _lock                                                           
2000305b  _mAddress                                                       
0000ce0b  _nop                                                            
0000ce03  _register_lock                                                  
0000cdfd  _register_unlock                                                
20004a74  _unlock                                                         
2000305c  _xgAddress                                                      
20002fb0  aBias                                                           
20003000  aBiasRaw                                                        
20003028  aRes                                                            
00009bf5  abort                                                           
20002974  accelTask                                                       
0000aac5  accelTaskFunc                                                   
2000302c  adc1                                                            
0000beed  adc1Setup                                                       
200029c4  adc1Task                                                        
000069dd  adc1TaskFunc                                                    
0001199c  adcCC26xxHWAttrs                                                
200024c8  adcCC26xxObjects                                                
20003046  adcValue1                                                       
20003030  adcValue1MicroVolt                                              
20003048  ax                                                              
2000304a  ay                                                              
2000304c  az                                                              
ffffffff  binit                                                           
20004944  bytesRead                                                       
0000bc9d  calcAccel                                                       
0000c2d1  calcGyro                                                        
00009af5  calcaRes                                                        
0000a1b9  calcgRes                                                        
00009b49  calcmRes                                                        
00002f41  calibrate                                                       
20002a14  calibrationTask                                                 
0000aea1  calibrationTaskFunc                                             
0000bf15  clk0Fxn                                                         
20002d58  clk0Struct                                                      
0000a201  clockSetup                                                      
000086bd  configInt                                                       
000083e9  constrainScales                                                 
00009f61  copy_in                                                         
0000aff9  createADC1Task                                                  
0000b031  createAccelTask                                                 
0000b069  createCalibrationTask                                           
0000b0a1  createGyroTask                                                  
0000b0d9  createInitializationTask                                        
0000b111  createMagTask                                                   
00009721  createRFRXTasks                                                 
0000b149  createRFTXTasks                                                 
0000c2f1  displaySetup                                                    
00011fb0  displayUartHWAttrs                                              
20002fbc  displayUartObject                                               
2000305d  driverlib_release_0_48919                                       
00009bfd  exit                                                            
0000ca95  free                                                            
20002fc8  gBias                                                           
20003008  gBiasRaw                                                        
20003034  gRes                                                            
00006c01  getMagInitial                                                   
20004174  globalPacket                                                    
20004934  goodToGo                                                        
2000304e  gx                                                              
20003050  gy                                                              
20002a64  gyroTask                                                        
0000ab05  gyroTaskFunc                                                    
20003052  gz                                                              
20003038  i2c                                                             
00011f38  i2cCC26xxHWAttrs                                                
200023e8  i2cCC26xxObjects                                                
20002f94  i2cParams                                                       
20002f00  i2cTransaction                                                  
0000399d  initAccel                                                       
00002995  initGyro                                                        
0000b7b1  initI2C                                                         
00004769  initMag                                                         
20002ab4  initializationTask                                              
0000a5e1  initializationTaskFunc                                          
20002fd4  mBias                                                           
20003010  mBiasRaw                                                        
0000caad  mReadByte                                                       
0000bff9  mReadBytes                                                      
2000303c  mRes                                                            
0000c311  mWriteByte                                                      
20002b04  magTask                                                         
0000ab45  magTaskFunc                                                     
00009185  main                                                            
20004af0  main_func_sp                                                    
0000bb3b  malloc                                                          
00007311  memcpy                                                          
000084e7  memset                                                          
20003054  mx                                                              
20003056  my                                                              
20003058  mz                                                              
20004948  numConnections                                                  
2000444c  pOverrides_fsk                                                  
200042dc  pOverrides_hsm                                                  
2000433c  pOverrides_lrm                                                  
20004398  pOverrides_ook                                                  
2000420c  pOverrides_sl_lr                                                
20003018  params                                                          
0000a249  pinCallback                                                     
0000b181  pinSetup                                                        
2000494c  pinTable                                                        
00007869  readAccel                                                       
000078fd  readGyro                                                        
00009ce9  readMag                                                         
0000ac83  realloc                                                         
000119ea  resourceDB                                                      
00011ac0  rfPowerTable                                                    
00012049  rfPowerTableSize                                                
00006325  rxBeaconFunc                                                    
20002b54  rxBeaconTask                                                    
000042f9  rxDoneCb                                                        
0000c01d  rxRestartFunc                                                   
20002ba4  rxRestartTask                                                   
00004535  semaphoreSetup                                                  
20002d30  settings                                                        
20004964  shapeovr                                                        
0000cce5  strcpy                                                          
0000ce11  strlen                                                          
20004804  ti_sysbios_BIOS_Module__state__V                                
0000cb9d  ti_sysbios_BIOS_RtsGateProxy_Handle__label__S                   
0000d497  ti_sysbios_BIOS_RtsGateProxy_enter__E                           
0000d49b  ti_sysbios_BIOS_RtsGateProxy_leave__E                           
0000d4af  ti_sysbios_BIOS_RtsGateProxy_query__E                           
0000b811  ti_sysbios_BIOS_atExitFunc__I                                   
0000ccfb  ti_sysbios_BIOS_exitFunc__I                                     
0000cfe1  ti_sysbios_BIOS_exit__E                                         
0000cff1  ti_sysbios_BIOS_getCpuFreq__E                                   
0000d1e1  ti_sysbios_BIOS_getThreadType__E                                
0000c913  ti_sysbios_BIOS_linkedWithIncorrectBootLibrary__E               
0000cdab  ti_sysbios_BIOS_nullFunc__I                                     
0000c041  ti_sysbios_BIOS_registerRTSLock__I                              
0000c065  ti_sysbios_BIOS_removeRTSLock__I                                
0000c331  ti_sysbios_BIOS_rtsLock__I                                      
0000cb0d  ti_sysbios_BIOS_rtsUnlock__I                                    
0000d001  ti_sysbios_BIOS_setThreadType__E                                
0000b841  ti_sysbios_BIOS_startFunc__I                                    
0000d011  ti_sysbios_BIOS_start__E                                        
00006d65  ti_sysbios_family_arm_cc26xx_Boot_trimDevice                    
0000cb25  ti_sysbios_family_arm_cc26xx_Timer_Module__startupDone__F       
0000cb25  ti_sysbios_family_arm_cc26xx_Timer_Module__startupDone__S       
20004a80  ti_sysbios_family_arm_cc26xx_Timer_Module__state__V             
0000c089  ti_sysbios_family_arm_cc26xx_Timer_Module_startup__E            
200044f0  ti_sysbios_family_arm_cc26xx_Timer_Object__table__V             
0000c351  ti_sysbios_family_arm_cc26xx_Timer_dynamicStub__E               
0000d49f  ti_sysbios_family_arm_cc26xx_Timer_getCount64__E                
0000b299  ti_sysbios_family_arm_cc26xx_Timer_getCurrentTick__E            
0000c0ad  ti_sysbios_family_arm_cc26xx_Timer_getMaxTicks__E               
0000b525  ti_sysbios_family_arm_cc26xx_Timer_initDevice__I                
0000c1ed  ti_sysbios_family_arm_cc26xx_Timer_postInit__I                  
0000b65d  ti_sysbios_family_arm_cc26xx_Timer_setNextTick__E               
0000d4a3  ti_sysbios_family_arm_cc26xx_Timer_setPeriod__E                 
0000abc5  ti_sysbios_family_arm_cc26xx_Timer_setThreshold__I              
00008731  ti_sysbios_family_arm_cc26xx_Timer_start__E                     
0001208c  ti_sysbios_family_arm_cc26xx_Timer_startupNeeded__C             
0000c0d1  ti_sysbios_family_arm_cc26xx_Timer_startup__E                   
20004af4  ti_sysbios_family_arm_cc26xx_TimestampProvider_Module__state__V 
0000c371  ti_sysbios_family_arm_cc26xx_TimestampProvider_Module_startup__E
0000cb3d  ti_sysbios_family_arm_cc26xx_TimestampProvider_get64__E         
00011a36  ti_sysbios_family_arm_cc26xx_TimestampProvider_useClockTimer__C 
00012090  ti_sysbios_family_arm_m3_Hwi_E_alreadyDefined__C                
0000b2d1  ti_sysbios_family_arm_m3_Hwi_Instance_finalize__E               
00007f31  ti_sysbios_family_arm_m3_Hwi_Instance_init__E                   
00012094  ti_sysbios_family_arm_m3_Hwi_LD_end__C                          
00012098  ti_sysbios_family_arm_m3_Hwi_LM_begin__C                        
20004a3e  ti_sysbios_family_arm_m3_Hwi_Module_State_0_excActive__A        
20004af8  ti_sysbios_family_arm_m3_Hwi_Module_State_0_excContext__A       
20004afc  ti_sysbios_family_arm_m3_Hwi_Module_State_0_excStack__A         
0001209c  ti_sysbios_family_arm_m3_Hwi_Module__diagsEnabled__C            
000120a0  ti_sysbios_family_arm_m3_Hwi_Module__diagsIncluded__C           
000120a4  ti_sysbios_family_arm_m3_Hwi_Module__diagsMask__C               
0001204a  ti_sysbios_family_arm_m3_Hwi_Module__id__C                      
00012230  ti_sysbios_family_arm_m3_Hwi_Module__loggerDefined__C           
000120a8  ti_sysbios_family_arm_m3_Hwi_Module__loggerFxn1__C              
000120ac  ti_sysbios_family_arm_m3_Hwi_Module__loggerFxn8__C              
000120b0  ti_sysbios_family_arm_m3_Hwi_Module__loggerObj__C               
20004a88  ti_sysbios_family_arm_m3_Hwi_Module__root__V                    
0000cb55  ti_sysbios_family_arm_m3_Hwi_Module__startupDone__F             
0000cb55  ti_sysbios_family_arm_m3_Hwi_Module__startupDone__S             
200045f8  ti_sysbios_family_arm_m3_Hwi_Module__state__V                   
0000a2d9  ti_sysbios_family_arm_m3_Hwi_Module_startup__E                  
000120b4  ti_sysbios_family_arm_m3_Hwi_NUM_INTERRUPTS__C                  
00011d58  ti_sysbios_family_arm_m3_Hwi_Object__DESC__C                    
00011b3c  ti_sysbios_family_arm_m3_Hwi_Object__PARAMS__C                  
000120b8  ti_sysbios_family_arm_m3_Hwi_Object__count__C                   
0000ce25  ti_sysbios_family_arm_m3_Hwi_Object__get__S                     
2000497c  ti_sysbios_family_arm_m3_Hwi_Object__table__V                   
0000d1ed  ti_sysbios_family_arm_m3_Hwi_Params__init__S                    
000120bc  ti_sysbios_family_arm_m3_Hwi_ccr__C                             
00009d89  ti_sysbios_family_arm_m3_Hwi_construct                          
0000aedd  ti_sysbios_family_arm_m3_Hwi_construct2__E                      
0000c755  ti_sysbios_family_arm_m3_Hwi_destruct                           
0000d1f9  ti_sysbios_family_arm_m3_Hwi_disableFxn__E                      
0000a6ad  ti_sysbios_family_arm_m3_Hwi_disableInterrupt__E                
00004881  ti_sysbios_family_arm_m3_Hwi_dispatchC__I                       
20002670  ti_sysbios_family_arm_m3_Hwi_dispatchTable                      
0000600d  ti_sysbios_family_arm_m3_Hwi_dispatch__I                        
0000d391  ti_sysbios_family_arm_m3_Hwi_doSwiRestore__I                    
0000d3f5  ti_sysbios_family_arm_m3_Hwi_doTaskRestore__I                   
0000a6f1  ti_sysbios_family_arm_m3_Hwi_enableInterrupt__E                 
0000c391  ti_sysbios_family_arm_m3_Hwi_excHandlerAsm__I                   
000120c0  ti_sysbios_family_arm_m3_Hwi_excHandlerFunc__C                  
0000c3b1  ti_sysbios_family_arm_m3_Hwi_excHandler__I                      
0000ac05  ti_sysbios_family_arm_m3_Hwi_getStackInfo__E                    
000082e9  ti_sysbios_family_arm_m3_Hwi_initNVIC__E                        
0000a321  ti_sysbios_family_arm_m3_Hwi_initStacks__E                      
000060bd  ti_sysbios_family_arm_m3_Hwi_interruptsAreDisabledButShouldNotBe
000120c4  ti_sysbios_family_arm_m3_Hwi_nullIsrFunc__C                     
e000e000  ti_sysbios_family_arm_m3_Hwi_nvic                               
0000c8f9  ti_sysbios_family_arm_m3_Hwi_pendSV__I                          
0000cb6d  ti_sysbios_family_arm_m3_Hwi_plug__E                            
00009999  ti_sysbios_family_arm_m3_Hwi_postInit__I                        
0000d021  ti_sysbios_family_arm_m3_Hwi_post__E                            
000120c8  ti_sysbios_family_arm_m3_Hwi_priGroup__C                        
20000000  ti_sysbios_family_arm_m3_Hwi_ramVectors                         
00000000  ti_sysbios_family_arm_m3_Hwi_resetVectors                       
0000d3fb  ti_sysbios_family_arm_m3_Hwi_restoreFxn__E                      
0000c911  ti_sysbios_family_arm_m3_Hwi_return                             
0000d401  ti_sysbios_family_arm_m3_Hwi_setFunc__E                         
0000c771  ti_sysbios_family_arm_m3_Hwi_setPriority__E                     
0000d399  ti_sysbios_family_arm_m3_Hwi_startup__E                         
000120cc  ti_sysbios_family_arm_m3_Hwi_swiDisable__C                      
000120d0  ti_sysbios_family_arm_m3_Hwi_swiRestoreHwi__C                   
0000ce39  ti_sysbios_family_arm_m3_Hwi_switchFromBootStack__E             
0000d4a7  ti_sysbios_family_arm_m3_TaskSupport_Module__startupDone__S     
00009fad  ti_sysbios_family_arm_m3_TaskSupport_buildTaskStack             
0000d205  ti_sysbios_family_arm_m3_TaskSupport_getStackAlignment__E       
0000d031  ti_sysbios_family_arm_m3_TaskSupport_glue                       
000120d4  ti_sysbios_family_arm_m3_TaskSupport_stackAlignment__C          
0000badf  ti_sysbios_family_arm_m3_TaskSupport_start__E                   
0000d041  ti_sysbios_family_arm_m3_TaskSupport_swap__E                    
0000c5ad  ti_sysbios_family_xxx_Hwi_switchAndRunFunc                      
0000cb85  ti_sysbios_gates_GateHwi_Handle__label__S                       
0000d167  ti_sysbios_gates_GateHwi_Instance_init__E                       
00011c84  ti_sysbios_gates_GateHwi_Module__FXNS__C                        
20004a90  ti_sysbios_gates_GateHwi_Module__root__V                        
00011d78  ti_sysbios_gates_GateHwi_Object__DESC__C                        
00011f68  ti_sysbios_gates_GateHwi_Object__PARAMS__C                      
0000b871  ti_sysbios_gates_GateHwi_Object__create__S                      
0000c3d1  ti_sysbios_gates_GateHwi_Object__delete__S                      
20004b00  ti_sysbios_gates_GateHwi_Object__table__V                       
0000d211  ti_sysbios_gates_GateHwi_enter__E                               
0000d407  ti_sysbios_gates_GateHwi_leave__E                               
0000d4ab  ti_sysbios_gates_GateHwi_query__E                               
0000cb9d  ti_sysbios_gates_GateMutex_Handle__label__S                     
000120d8  ti_sysbios_gates_GateMutex_Instance_State_sem__O                
0000d051  ti_sysbios_gates_GateMutex_Instance_finalize__E                 
0000c78d  ti_sysbios_gates_GateMutex_Instance_init__E                     
00011ca8  ti_sysbios_gates_GateMutex_Module__FXNS__C                      
20004a98  ti_sysbios_gates_GateMutex_Module__root__V                      
00011d98  ti_sysbios_gates_GateMutex_Object__DESC__C                      
00011f80  ti_sysbios_gates_GateMutex_Object__PARAMS__C                    
0000b8a1  ti_sysbios_gates_GateMutex_Object__create__S                    
0000c0f5  ti_sysbios_gates_GateMutex_Object__delete__S                    
200045c0  ti_sysbios_gates_GateMutex_Object__table__V                     
0000b8d1  ti_sysbios_gates_GateMutex_enter__E                             
0000cbb5  ti_sysbios_gates_GateMutex_leave__E                             
0000d4af  ti_sysbios_gates_GateMutex_query__E                             
0000cb55  ti_sysbios_hal_Hwi_HwiProxy_Module__startupDone__S              
0000d1ed  ti_sysbios_hal_Hwi_HwiProxy_Params__init__S                     
0000a6ad  ti_sysbios_hal_Hwi_HwiProxy_disableInterrupt__E                 
0000d1f9  ti_sysbios_hal_Hwi_HwiProxy_disable__E                          
0000a6f1  ti_sysbios_hal_Hwi_HwiProxy_enableInterrupt__E                  
0000ac05  ti_sysbios_hal_Hwi_HwiProxy_getStackInfo__E                     
0000d021  ti_sysbios_hal_Hwi_HwiProxy_post__E                             
0000d3fb  ti_sysbios_hal_Hwi_HwiProxy_restore__E                          
0000d399  ti_sysbios_hal_Hwi_HwiProxy_startup__E                          
0000ce39  ti_sysbios_hal_Hwi_HwiProxy_switchFromBootStack__E              
0000cead  ti_sysbios_hal_Hwi_Module_startup__E                            
0000bb0d  ti_sysbios_hal_Hwi_initStack                                    
000120dc  ti_sysbios_heaps_HeapMem_E_memory__C                            
0000cbcd  ti_sysbios_heaps_HeapMem_Handle__label__S                       
0000b309  ti_sysbios_heaps_HeapMem_Instance_init__E                       
0000cb9d  ti_sysbios_heaps_HeapMem_Module_GateProxy_Handle__label__S      
0000d4b3  ti_sysbios_heaps_HeapMem_Module_GateProxy_enter__E              
0000d4b7  ti_sysbios_heaps_HeapMem_Module_GateProxy_leave__E              
0000d4af  ti_sysbios_heaps_HeapMem_Module_GateProxy_query__E              
00011bc0  ti_sysbios_heaps_HeapMem_Module__FXNS__C                        
000120e0  ti_sysbios_heaps_HeapMem_Module__gateObj__C                     
00012232  ti_sysbios_heaps_HeapMem_Module__id__C                          
20004aa0  ti_sysbios_heaps_HeapMem_Module__root__V                        
00011db8  ti_sysbios_heaps_HeapMem_Object__DESC__C                        
00011ccc  ti_sysbios_heaps_HeapMem_Object__PARAMS__C                      
000120e4  ti_sysbios_heaps_HeapMem_Object__count__C                       
0000b901  ti_sysbios_heaps_HeapMem_Object__create__S                      
0000c3f1  ti_sysbios_heaps_HeapMem_Object__delete__S                      
0000ce4d  ti_sysbios_heaps_HeapMem_Object__get__S                         
20004994  ti_sysbios_heaps_HeapMem_Object__table__V                       
000087a5  ti_sysbios_heaps_HeapMem_allocUnprotected__E                    
000099f1  ti_sysbios_heaps_HeapMem_alloc__E                               
00009a49  ti_sysbios_heaps_HeapMem_freeUnprotected__E                     
0000b931  ti_sysbios_heaps_HeapMem_free__E                                
0000a369  ti_sysbios_heaps_HeapMem_getStats__E                            
000091e9  ti_sysbios_heaps_HeapMem_initPrimary__I                         
0000d40d  ti_sysbios_heaps_HeapMem_isBlocking__E                          
000120e8  ti_sysbios_heaps_HeapMem_primaryHeapBaseAddr__C                 
000120ec  ti_sysbios_heaps_HeapMem_primaryHeapEndAddr__C                  
000120f0  ti_sysbios_heaps_HeapMem_reqAlign__C                            
0000d13d  ti_sysbios_heaps_HeapMem_restore__E                             
0000cd11  ti_sysbios_knl_Clock_Instance_finalize__E                       
0000b341  ti_sysbios_knl_Clock_Instance_init__E                           
000120f4  ti_sysbios_knl_Clock_LM_begin__C                                
000120f8  ti_sysbios_knl_Clock_LM_tick__C                                 
000120fc  ti_sysbios_knl_Clock_Module_State_clockQ__O                     
00012100  ti_sysbios_knl_Clock_Module__diagsEnabled__C                    
00012104  ti_sysbios_knl_Clock_Module__diagsIncluded__C                   
00012108  ti_sysbios_knl_Clock_Module__diagsMask__C                       
00012234  ti_sysbios_knl_Clock_Module__id__C                              
00012236  ti_sysbios_knl_Clock_Module__loggerDefined__C                   
0001210c  ti_sysbios_knl_Clock_Module__loggerFxn1__C                      
00012110  ti_sysbios_knl_Clock_Module__loggerFxn2__C                      
00012114  ti_sysbios_knl_Clock_Module__loggerObj__C                       
20004aa8  ti_sysbios_knl_Clock_Module__root__V                            
200046ec  ti_sysbios_knl_Clock_Module__state__V                           
0000c411  ti_sysbios_knl_Clock_Module_startup__E                          
00011dd8  ti_sysbios_knl_Clock_Object__DESC__C                            
00011cf0  ti_sysbios_knl_Clock_Object__PARAMS__C                          
20004848  ti_sysbios_knl_Clock_Object__table__V                           
0000d21d  ti_sysbios_knl_Clock_Params__init__S                            
0000cb25  ti_sysbios_knl_Clock_TimerProxy_Module__startupDone__S          
0000d4bb  ti_sysbios_knl_Clock_TimerProxy_getCurrentTick__E               
0000d4bf  ti_sysbios_knl_Clock_TimerProxy_getMaxTicks__E                  
0000d4c3  ti_sysbios_knl_Clock_TimerProxy_setNextTick__E                  
0000c0d1  ti_sysbios_knl_Clock_TimerProxy_startup__E                      
0000bf3d  ti_sysbios_knl_Clock_addI__E                                    
0000b961  ti_sysbios_knl_Clock_construct                                  
0000c431  ti_sysbios_knl_Clock_destruct                                   
0000ce61  ti_sysbios_knl_Clock_doTick__I                                  
0000bcf5  ti_sysbios_knl_Clock_getTicksUntilInterrupt__E                  
0000c451  ti_sysbios_knl_Clock_getTicks__E                                
0000bdcf  ti_sysbios_knl_Clock_getTimeout__E                              
0000d229  ti_sysbios_knl_Clock_getTimerHandle__E                          
0000d4c7  ti_sysbios_knl_Clock_isActive__E                                
00009551  ti_sysbios_knl_Clock_logTick__E                                 
0000d4cb  ti_sysbios_knl_Clock_removeI__E                                 
0000c7a9  ti_sysbios_knl_Clock_scheduleNextTick__E                        
0000d4cf  ti_sysbios_knl_Clock_setTimeout__E                              
00008ebd  ti_sysbios_knl_Clock_startI__E                                  
0000cd3d  ti_sysbios_knl_Clock_start__E                                   
0000c471  ti_sysbios_knl_Clock_stop__E                                    
00012118  ti_sysbios_knl_Clock_tickPeriod__C                              
0001211c  ti_sysbios_knl_Clock_triggerClock__C                            
0000d507  ti_sysbios_knl_Clock_triggerFunc__I                             
00005cb9  ti_sysbios_knl_Clock_walkQueueDynamic__E                        
00007579  ti_sysbios_knl_Clock_workFuncDynamic__E                         
00012120  ti_sysbios_knl_Idle_funcList__A                                 
00012064  ti_sysbios_knl_Idle_funcList__C                                 
0000d3a1  ti_sysbios_knl_Idle_loop__E                                     
0000c491  ti_sysbios_knl_Idle_run__E                                      
0000d413  ti_sysbios_knl_Queue_Instance_init__E                           
20004ab0  ti_sysbios_knl_Queue_Module__root__V                            
00011df8  ti_sysbios_knl_Queue_Object__DESC__C                            
00011f98  ti_sysbios_knl_Queue_Object__PARAMS__C                          
0000d235  ti_sysbios_knl_Queue_Object__get__S                             
0000bd21  ti_sysbios_knl_Queue_construct                                  
0000d241  ti_sysbios_knl_Queue_dequeue__E                                 
0000c7c5  ti_sysbios_knl_Queue_destruct                                   
0000d419  ti_sysbios_knl_Queue_elemClear__E                               
0000d14b  ti_sysbios_knl_Queue_empty__E                                   
0000d24d  ti_sysbios_knl_Queue_enqueue__E                                 
0000d4d3  ti_sysbios_knl_Queue_head__E                                    
0000d4d7  ti_sysbios_knl_Queue_next__E                                    
0000c7e1  ti_sysbios_knl_Queue_put__E                                     
0000d159  ti_sysbios_knl_Queue_remove__E                                  
00012124  ti_sysbios_knl_Semaphore_Instance_State_pendQ__O                
0000d061  ti_sysbios_knl_Semaphore_Instance_finalize__E                   
0000c119  ti_sysbios_knl_Semaphore_Instance_init__E                       
00012128  ti_sysbios_knl_Semaphore_LM_pend__C                             
0001212c  ti_sysbios_knl_Semaphore_LM_post__C                             
00012130  ti_sysbios_knl_Semaphore_Module__diagsEnabled__C                
00012134  ti_sysbios_knl_Semaphore_Module__diagsIncluded__C               
00012138  ti_sysbios_knl_Semaphore_Module__diagsMask__C                   
00012238  ti_sysbios_knl_Semaphore_Module__id__C                          
0001223a  ti_sysbios_knl_Semaphore_Module__loggerDefined__C               
0001213c  ti_sysbios_knl_Semaphore_Module__loggerFxn2__C                  
00012140  ti_sysbios_knl_Semaphore_Module__loggerFxn4__C                  
00012144  ti_sysbios_knl_Semaphore_Module__loggerObj__C                   
20004ab8  ti_sysbios_knl_Semaphore_Module__root__V                        
00011e18  ti_sysbios_knl_Semaphore_Object__DESC__C                        
00011d14  ti_sysbios_knl_Semaphore_Object__PARAMS__C                      
0000c13d  ti_sysbios_knl_Semaphore_Object__delete__S                      
0000d259  ti_sysbios_knl_Semaphore_Params__init__S                        
0000b991  ti_sysbios_knl_Semaphore_construct                              
0000b559  ti_sysbios_knl_Semaphore_create                                 
0000d4db  ti_sysbios_knl_Semaphore_delete                                 
0000c4b1  ti_sysbios_knl_Semaphore_destruct                               
0000bd4d  ti_sysbios_knl_Semaphore_pendTimeout__I                         
00003d2d  ti_sysbios_knl_Semaphore_pend__E                                
00006921  ti_sysbios_knl_Semaphore_post__E                                
0000d509  ti_sysbios_knl_Swi_Instance_finalize__E                         
00009dd9  ti_sysbios_knl_Swi_Instance_init__E                             
00012148  ti_sysbios_knl_Swi_LD_end__C                                    
0001214c  ti_sysbios_knl_Swi_LM_begin__C                                  
00012150  ti_sysbios_knl_Swi_LM_post__C                                   
2000465c  ti_sysbios_knl_Swi_Module_State_0_readyQ__A                     
00012154  ti_sysbios_knl_Swi_Module__diagsEnabled__C                      
00012158  ti_sysbios_knl_Swi_Module__diagsIncluded__C                     
0001215c  ti_sysbios_knl_Swi_Module__diagsMask__C                         
0001223c  ti_sysbios_knl_Swi_Module__id__C                                
0001223e  ti_sysbios_knl_Swi_Module__loggerDefined__C                     
00012160  ti_sysbios_knl_Swi_Module__loggerFxn1__C                        
00012164  ti_sysbios_knl_Swi_Module__loggerFxn4__C                        
00012168  ti_sysbios_knl_Swi_Module__loggerObj__C                         
20004ac0  ti_sysbios_knl_Swi_Module__root__V                              
20004888  ti_sysbios_knl_Swi_Module__state__V                             
0000c161  ti_sysbios_knl_Swi_Module_startup__E                            
00011e38  ti_sysbios_knl_Swi_Object__DESC__C                              
00011be8  ti_sysbios_knl_Swi_Object__PARAMS__C                            
0001216c  ti_sysbios_knl_Swi_Object__count__C                             
0000ce75  ti_sysbios_knl_Swi_Object__get__S                               
2000468c  ti_sysbios_knl_Swi_Object__table__V                             
0000d271  ti_sysbios_knl_Swi_Params__init__S                              
00009ff9  ti_sysbios_knl_Swi_construct                                    
0000c7fd  ti_sysbios_knl_Swi_construct2__E                                
0000c819  ti_sysbios_knl_Swi_destruct                                     
0000d071  ti_sysbios_knl_Swi_disable__E                                   
0000d081  ti_sysbios_knl_Swi_enabled__E                                   
0000d27d  ti_sysbios_knl_Swi_getTrigger__E                                
0000cbe5  ti_sysbios_knl_Swi_or__E                                        
0000d4df  ti_sysbios_knl_Swi_postInit__I                                  
00006e0d  ti_sysbios_knl_Swi_post__E                                      
00008f25  ti_sysbios_knl_Swi_restoreHwi__E                                
0000b58d  ti_sysbios_knl_Swi_restore__E                                   
00009e29  ti_sysbios_knl_Swi_runLoop__I                                   
00004bbd  ti_sysbios_knl_Swi_run__I                                       
00009c45  ti_sysbios_knl_Swi_schedule__I                                  
0000d41f  ti_sysbios_knl_Swi_startup__E                                   
20000fd0  ti_sysbios_knl_Task_Instance_State_0_stack__A                   
00007991  ti_sysbios_knl_Task_Instance_finalize__E                        
000063e9  ti_sysbios_knl_Task_Instance_init__E                            
00012170  ti_sysbios_knl_Task_LD_block__C                                 
00012174  ti_sysbios_knl_Task_LD_exit__C                                  
00012178  ti_sysbios_knl_Task_LD_ready__C                                 
0001217c  ti_sysbios_knl_Task_LM_switch__C                                
00012180  ti_sysbios_knl_Task_LM_yield__C                                 
20004b04  ti_sysbios_knl_Task_Module_State_0_idleTask__A                  
200046bc  ti_sysbios_knl_Task_Module_State_0_readyQ__A                    
00012184  ti_sysbios_knl_Task_Module_State_inactiveQ__O                   
00012188  ti_sysbios_knl_Task_Module__diagsEnabled__C                     
0001218c  ti_sysbios_knl_Task_Module__diagsIncluded__C                    
00012190  ti_sysbios_knl_Task_Module__diagsMask__C                        
00012240  ti_sysbios_knl_Task_Module__id__C                               
00012242  ti_sysbios_knl_Task_Module__loggerDefined__C                    
00012194  ti_sysbios_knl_Task_Module__loggerFxn2__C                       
00012198  ti_sysbios_knl_Task_Module__loggerFxn4__C                       
0001219c  ti_sysbios_knl_Task_Module__loggerObj__C                        
20004a4c  ti_sysbios_knl_Task_Module__root__V                             
2000457c  ti_sysbios_knl_Task_Module__state__V                            
000097d9  ti_sysbios_knl_Task_Module_startup__E                           
00011e58  ti_sysbios_knl_Task_Object__DESC__C                             
00011b00  ti_sysbios_knl_Task_Object__PARAMS__C                           
000121a0  ti_sysbios_knl_Task_Object__count__C                            
0000d091  ti_sysbios_knl_Task_Object__get__S                              
200044a4  ti_sysbios_knl_Task_Object__table__V                            
0000d289  ti_sysbios_knl_Task_Params__init__S                             
0000d4a7  ti_sysbios_knl_Task_SupportProxy_Module__startupDone__S         
0000d205  ti_sysbios_knl_Task_SupportProxy_getStackAlignment__E           
0000badf  ti_sysbios_knl_Task_SupportProxy_start__E                       
0000d041  ti_sysbios_knl_Task_SupportProxy_swap__E                        
000121a4  ti_sysbios_knl_Task_allBlockedFunc__C                           
0000a735  ti_sysbios_knl_Task_allBlockedFunction__I                       
00007611  ti_sysbios_knl_Task_blockI__E                                   
0000a045  ti_sysbios_knl_Task_construct                                   
000121a8  ti_sysbios_knl_Task_defaultStackHeap__C                         
000121ac  ti_sysbios_knl_Task_defaultStackSize__C                         
0000d0a1  ti_sysbios_knl_Task_disable__E                                  
0000c835  ti_sysbios_knl_Task_enter__I                                    
00007a25  ti_sysbios_knl_Task_exit__E                                     
000121b0  ti_sysbios_knl_Task_numConstructedTasks__C                      
00008369  ti_sysbios_knl_Task_postInit__I                                 
0000b9c1  ti_sysbios_knl_Task_processVitalTaskFlag__I                     
0000c4d1  ti_sysbios_knl_Task_restoreHwi__E                               
0000bf65  ti_sysbios_knl_Task_restore__E                                  
0000662d  ti_sysbios_knl_Task_schedule__I                                 
0000d295  ti_sysbios_knl_Task_self__E                                     
00006a95  ti_sysbios_knl_Task_startCore__E                                
0000d4e3  ti_sysbios_knl_Task_startup__E                                  
0000d049  ti_sysbios_knl_Task_swapReturn                                  
00007fbd  ti_sysbios_knl_Task_unblockI__E                                 
0000cbfd  ti_sysbios_knl_Task_unblock__E                                  
00006cb5  ti_sysbios_knl_Task_yield__E                                    
0000cc15  ti_uia_loggers_LoggerStopMode_Handle__label__S                  
20002d00  ti_uia_loggers_LoggerStopMode_Instance_State_0_hdr__A           
20000500  ti_uia_loggers_LoggerStopMode_Instance_State_0_packetArray__A   
20002d80  ti_uia_loggers_LoggerStopMode_Instance_State_1_hdr__A           
20000900  ti_uia_loggers_LoggerStopMode_Instance_State_1_packetArray__A   
0000c851  ti_uia_loggers_LoggerStopMode_Instance_init__E                  
0001193c  ti_uia_loggers_LoggerStopMode_Module__FXNS__C                   
000121b4  ti_uia_loggers_LoggerStopMode_Module__diagsEnabled__C           
000121b8  ti_uia_loggers_LoggerStopMode_Module__diagsIncluded__C          
000121bc  ti_uia_loggers_LoggerStopMode_Module__diagsMask__C              
00012244  ti_uia_loggers_LoggerStopMode_Module__id__C                     
20004ac8  ti_uia_loggers_LoggerStopMode_Module__root__V                   
0000a091  ti_uia_loggers_LoggerStopMode_Module_startup__E                 
00011e78  ti_uia_loggers_LoggerStopMode_Object__DESC__C                   
00011c10  ti_uia_loggers_LoggerStopMode_Object__PARAMS__C                 
000121c0  ti_uia_loggers_LoggerStopMode_Object__count__C                  
0000b9f1  ti_uia_loggers_LoggerStopMode_Object__create__S                 
0000c4f1  ti_uia_loggers_LoggerStopMode_Object__delete__S                 
0000d0b1  ti_uia_loggers_LoggerStopMode_Object__get__S                    
20004274  ti_uia_loggers_LoggerStopMode_Object__table__V                  
0000cd7f  ti_uia_loggers_LoggerStopMode_disable__E                        
0000cd95  ti_uia_loggers_LoggerStopMode_enable__E                         
00008f8d  ti_uia_loggers_LoggerStopMode_flush__E                          
0000d4e7  ti_uia_loggers_LoggerStopMode_getContents__E                    
0000d4eb  ti_uia_loggers_LoggerStopMode_getFilterLevel__E                 
0000d4ef  ti_uia_loggers_LoggerStopMode_getInstanceId__E                  
0000d4f3  ti_uia_loggers_LoggerStopMode_getMaxLength__E                   
0000d4f7  ti_uia_loggers_LoggerStopMode_getPriority__E                    
0000d4fb  ti_uia_loggers_LoggerStopMode_getTransferType__E                
0000a779  ti_uia_loggers_LoggerStopMode_initBuffer__I                     
00007c71  ti_uia_loggers_LoggerStopMode_initQueueDescriptor__E            
0000d0c1  ti_uia_loggers_LoggerStopMode_isEmpty__E                        
00012246  ti_uia_loggers_LoggerStopMode_isTimestampEnabled__C             
0000b5c1  ti_uia_loggers_LoggerStopMode_reset__E                          
0000d50b  ti_uia_loggers_LoggerStopMode_setFilterLevel__E                 
0000d50d  ti_uia_loggers_LoggerStopMode_setPriority__E                    
00005d91  ti_uia_loggers_LoggerStopMode_write0__E                         
000055c9  ti_uia_loggers_LoggerStopMode_write1__E                         
000056b1  ti_uia_loggers_LoggerStopMode_write2__E                         
000053e5  ti_uia_loggers_LoggerStopMode_write4__E                         
00004ccd  ti_uia_loggers_LoggerStopMode_write8__E                         
00003865  ti_uia_loggers_LoggerStopMode_writeMemoryRange__E               
000121c4  ti_uia_runtime_ILoggerSnapshot_Interface__BASE__C               
000121c8  ti_uia_runtime_IUIATransfer_Interface__BASE__C                  
20004a58  ti_uia_runtime_QueueDescriptor_Module__state__V                 
00008819  ti_uia_runtime_QueueDescriptor_addToList__E                     
20004a78  ti_uia_runtime_QueueDescriptor_gPtrToFirstDescriptor            
20004a7c  ti_uia_runtime_QueueDescriptor_gUpdateCount                     
20002bf4  txDataTask                                                      
00005799  txDataTaskFunc                                                  
00011e98  uartCC26XXHWAttrs                                               
2000208c  uartCC26XXObjects                                               
0001206c  watchdogCC26XXHWAttrs                                           
20002ccc  watchdogCC26XXObjects                                           
20003040  watchdogHandle                                                  
0000b5f5  wdtSetup                                                        
000121cc  xdc_runtime_Assert_E_assertFailed__C                            
0000a3b1  xdc_runtime_Assert_raise__I                                     
0000b629  xdc_runtime_Core_assignLabel__I                                 
0000a3f9  xdc_runtime_Core_assignParams__I                                
0000a441  xdc_runtime_Core_constructObject__I                             
0000888d  xdc_runtime_Core_createObject__I                                
00008ff3  xdc_runtime_Core_deleteObject__I                                
000121d0  xdc_runtime_Error_E_memory__C                                   
20004868  xdc_runtime_Error_IgnoreBlock                                   
0000c86d  xdc_runtime_Error_check__E                                      
0000cc2d  xdc_runtime_Error_init__E                                       
000121d4  xdc_runtime_Error_policyFxn__C                                  
0000d50f  xdc_runtime_Error_policySpin__E                                 
00012254  xdc_runtime_Error_policy__C                                     
0000c889  xdc_runtime_Error_raiseX__E                                     
0000d2a1  xdc_runtime_Gate_enterSystem__E                                 
0000d0e1  xdc_runtime_Gate_leaveSystem__E                                 
000121d8  xdc_runtime_IFilterLogger_Interface__BASE__C                    
000121dc  xdc_runtime_IGateProvider_Interface__BASE__C                    
000121e0  xdc_runtime_IHeap_Interface__BASE__C                            
000121e4  xdc_runtime_ILogger_Interface__BASE__C                          
000121e8  xdc_runtime_IModule_Interface__BASE__C                          
0000cb85  xdc_runtime_Main_Module_GateProxy_Handle__label__S              
0000d4ab  xdc_runtime_Main_Module_GateProxy_query__E                      
0000cbcd  xdc_runtime_Memory_HeapProxy_Handle__label__S                   
0000d335  xdc_runtime_Memory_HeapProxy_alloc__E                           
0000d33f  xdc_runtime_Memory_HeapProxy_free__E                            
00012248  xdc_runtime_Memory_Module__id__C                                
20004b08  xdc_runtime_Memory_Module__state__V                             
000089d9  xdc_runtime_Memory_alloc__E                                     
0000d2ad  xdc_runtime_Memory_calloc__E                                    
000121ec  xdc_runtime_Memory_defaultHeapInstance__C                       
0000d0f1  xdc_runtime_Memory_free__E                                      
0000d2b9  xdc_runtime_Memory_getMaxDefaultTypeAlign__E                    
0000c8a5  xdc_runtime_Memory_valloc__E                                    
20004ad0  xdc_runtime_Registry_Module__state__V                           
0000c511  xdc_runtime_Registry_findById__E                                
20004ad8  xdc_runtime_Startup_Module__state__V                            
00000001  xdc_runtime_Startup__EXECFXN__C                                 
00000001  xdc_runtime_Startup__RESETFXN__C                                
000121f0  xdc_runtime_Startup_execImpl__C                                 
00009e79  xdc_runtime_Startup_exec__E                                     
0000cebf  xdc_runtime_Startup_exec__I                                     
00012034  xdc_runtime_Startup_firstFxns__A                                
00012074  xdc_runtime_Startup_firstFxns__C                                
0001207c  xdc_runtime_Startup_lastFxns__C                                 
000121f4  xdc_runtime_Startup_maxPasses__C                                
00006d65  xdc_runtime_Startup_reset__I                                    
0000d2c5  xdc_runtime_Startup_rtsDone__E                                  
00011fc4  xdc_runtime_Startup_sfxnRts__A                                  
000121f8  xdc_runtime_Startup_sfxnRts__C                                  
00011c38  xdc_runtime_Startup_sfxnTab__A                                  
000121fc  xdc_runtime_Startup_sfxnTab__C                                  
000052ed  xdc_runtime_Startup_startMods__I                                
200011d0  xdc_runtime_SysMin_Module_State_0_outbuf__A                     
20004a64  xdc_runtime_SysMin_Module__state__V                             
0000c531  xdc_runtime_SysMin_Module_startup__E                            
0000ba21  xdc_runtime_SysMin_abort__E                                     
00012200  xdc_runtime_SysMin_bufSize__C                                   
0000c8c1  xdc_runtime_SysMin_exit__E                                      
0001224a  xdc_runtime_SysMin_flushAtExit__C                               
0000a7bd  xdc_runtime_SysMin_flush__E                                     
00012204  xdc_runtime_SysMin_outputFunc__C                                
0000c20f  xdc_runtime_SysMin_output__I                                    
0000b3b1  xdc_runtime_SysMin_putch__E                                     
0000d101  xdc_runtime_SysMin_ready__E                                     
0000cb85  xdc_runtime_System_Module_GateProxy_Handle__label__S            
0000d4ff  xdc_runtime_System_Module_GateProxy_enter__E                    
0000d503  xdc_runtime_System_Module_GateProxy_leave__E                    
0000d4ab  xdc_runtime_System_Module_GateProxy_query__E                    
20004ae0  xdc_runtime_System_Module_State_0_atexitHandlers__A             
00012208  xdc_runtime_System_Module__gateObj__C                           
20004ae8  xdc_runtime_System_Module__state__V                             
0000d425  xdc_runtime_System_Module_startup__E                            
0000ba21  xdc_runtime_System_SupportProxy_abort__E                        
0000c8c1  xdc_runtime_System_SupportProxy_exit__E                         
0000a7bd  xdc_runtime_System_SupportProxy_flush__E                        
0000b3b1  xdc_runtime_System_SupportProxy_putch__E                        
0000d101  xdc_runtime_System_SupportProxy_ready__E                        
0001220c  xdc_runtime_System_abortFxn__C                                  
0000d511  xdc_runtime_System_abortSpin__E                                 
00009bf5  xdc_runtime_System_abortStd__E                                  
0000c8dd  xdc_runtime_System_abort__E                                     
0000b3e9  xdc_runtime_System_atexit__E                                    
0000084d  xdc_runtime_System_doPrint__I                                   
00012210  xdc_runtime_System_exitFxn__C                                   
0000d513  xdc_runtime_System_exitSpin__E                                  
00009bfd  xdc_runtime_System_exitStd__E                                   
0000cc45  xdc_runtime_System_exit__E                                      
00012214  xdc_runtime_System_extendFxn__C                                 
000088fd  xdc_runtime_System_formatNum__I                                 
00012218  xdc_runtime_System_maxAtexitHandlers__C                         
00001e1d  xdc_runtime_System_printfExtend__I                              
0000ba51  xdc_runtime_System_processAtExit__E                             
0000bdf9  xdc_runtime_System_putchar__I                                   
0000d111  xdc_runtime_System_vsnprintf__E                                 
0001224c  xdc_runtime_Text_charCnt__C                                     
00012255  xdc_runtime_Text_charTab__A                                     
0001221c  xdc_runtime_Text_charTab__C                                     
0000bd79  xdc_runtime_Text_cordText__E                                    
0001224e  xdc_runtime_Text_isLoaded__C                                    
00012220  xdc_runtime_Text_nameEmpty__C                                   
00012224  xdc_runtime_Text_nameStatic__C                                  
00012228  xdc_runtime_Text_nameUnknown__C                                 
0000ba81  xdc_runtime_Text_printVisFxn__I                                 
00009835  xdc_runtime_Text_putLab__E                                      
000076a9  xdc_runtime_Text_putMod__E                                      
0000709d  xdc_runtime_Text_putSite__E                                     
00012250  xdc_runtime_Text_registryModsLastId__C                          
0000cc5d  xdc_runtime_Text_ropeText__E                                    
00012252  xdc_runtime_Text_unnamedModsLastId__C                           
0001222c  xdc_runtime_Text_visitRopeFxn__C                                
0000d3b1  xdc_runtime_Text_visitRope__I                                   
0000a801  xdc_runtime_Text_xprintf__I                                     
0000cb3d  xdc_runtime_Timestamp_SupportProxy_get64__E                     
0000cc75  xgReadByte                                                      
0000c185  xgReadBytes                                                     
0000c551  xgWriteByte                                                     


GLOBAL SYMBOLS: SORTED BY Symbol Address 

address   name                                                            
-------   ----                                                            
00000000  __ASM__                                                         
00000000  ti_sysbios_family_arm_m3_Hwi_resetVectors                       
00000001  xdc_runtime_Startup__EXECFXN__C                                 
00000001  xdc_runtime_Startup__RESETFXN__C                                
0000006a  __ISA__                                                         
0000007c  __PLAT__                                                        
000000a3  __TARG__                                                        
000000c8  __TRDR__                                                        
00000400  __STACK_SIZE                                                    
00000489  EasyLink_init                                                   
0000084d  xdc_runtime_System_doPrint__I                                   
00000b89  HOSTwrite                                                       
00000bd5  HOSTunlink                                                      
00000c0d  HOSTtime64                                                      
00000c5b  HOSTtime                                                        
00000c95  HOSTrename                                                      
00000cf3  HOSTread                                                        
00000d3f  HOSTopen                                                        
00000d91  HOSTlseek                                                       
00000ded  HOSTgetenv                                                      
00000e2b  HOSTclose                                                       
00000e63  HOSTclock                                                       
00000ead  PowerCC26XX_auxISR                                              
00001000  HEAPSIZE                                                        
000011b9  __vla_dealloc                                                   
0000122b  __vla_dealloc_eh                                                
000012ab  __vla_alloc                                                     
00001401  NOROM_SysCtrlSetRechargeBeforePowerDown                         
00001629  Power_sleep                                                     
00001845  RF_open                                                         
00001a45  __aeabi_uldivmod                                                
00001c39  LSM9DS1init                                                     
00001e1d  xdc_runtime_System_printfExtend__I                              
00001ff9  __aeabi_dsub                                                    
00002003  __aeabi_dadd                                                    
000021af  DisplayUartMin_clear                                            
000021b1  EasyLink_setRfPwr                                               
000024f1  PowerCC26XX_doCalibrate                                         
00002681  PIN_init                                                        
00002995  initGyro                                                        
00002b15  EasyLink_receiveAsync                                           
00002c85  UARTCC26XX_open                                                 
00002de9  RF_postCmd                                                      
00002f41  calibrate                                                       
00003099  I2CCC26XX_open                                                  
00003341  RF_cancelCmd                                                    
00003729  EasyLink_transmit                                               
00003865  ti_uia_loggers_LoggerStopMode_writeMemoryRange__E               
0000399d  initAccel                                                       
00003ad1  NOROM_SetupAfterColdResetWakeupFromShutDownCfg3                 
00003c01  Power_init                                                      
00003d2d  ti_sysbios_knl_Semaphore_pend__E                                
000042f9  rxDoneCb                                                        
00004419  RF_close                                                        
00004535  semaphoreSetup                                                  
00004651  UARTCC26XX_read                                                 
00004769  initMag                                                         
00004881  ti_sysbios_family_arm_m3_Hwi_dispatchC__I                       
00004bbd  ti_sysbios_knl_Swi_run__I                                       
00004ccd  ti_uia_loggers_LoggerStopMode_write8__E                         
00004dd9  UARTCC26XX_hwiIntFxn                                            
00004ee3  DisplayUartMin_clearLines                                       
000050f5  UARTCC26XX_write                                                
000051f1  __aeabi_dmul                                                    
000052ed  xdc_runtime_Startup_startMods__I                                
000053e5  ti_uia_loggers_LoggerStopMode_write4__E                         
000054d9  NOROM_SetupAfterColdResetWakeupFromShutDownCfg2                 
000055c9  ti_uia_loggers_LoggerStopMode_write1__E                         
000056b1  ti_uia_loggers_LoggerStopMode_write2__E                         
00005799  txDataTaskFunc                                                  
00005879  NOROM_RFCOverrideUpdate                                         
00005a31  EasyLink_enableRxAddrFilter                                     
00005cb9  ti_sysbios_knl_Clock_walkQueueDynamic__E                        
00005d91  ti_uia_loggers_LoggerStopMode_write0__E                         
00005e69  NOROM_RFCRfTrimRead                                             
00005f3d  PowerCC26XX_standbyPolicy                                       
0000600d  ti_sysbios_family_arm_m3_Hwi_dispatch__I                        
000060bd  ti_sysbios_family_arm_m3_Hwi_interruptsAreDisabledButShouldNotBe
000060d9  ADCCC26XX_convert                                               
00006325  rxBeaconFunc                                                    
000063e9  ti_sysbios_knl_Task_Instance_init__E                            
000064ad  I2CCC26XX_transfer                                              
0000656d  NOROM_AUXADCEnableSync                                          
0000662d  ti_sysbios_knl_Task_schedule__I                                 
000066ed  I2CreadBytes                                                    
000067a9  Power_releaseDependency                                         
00006921  ti_sysbios_knl_Semaphore_post__E                                
000069dd  adc1TaskFunc                                                    
00006a95  ti_sysbios_knl_Task_startCore__E                                
00006b4d  Power_setDependency                                             
00006c01  getMagInitial                                                   
00006cb5  ti_sysbios_knl_Task_yield__E                                    
00006d65  NOROM_SetupTrimDevice                                           
00006d65  ti_sysbios_family_arm_cc26xx_Boot_trimDevice                    
00006d65  xdc_runtime_Startup_reset__I                                    
00006e0d  ti_sysbios_knl_Swi_post__E                                      
00006eb5  NOROM_SetupAfterColdResetWakeupFromShutDownCfg1                 
00006ffd  __TI_auto_init                                                  
0000709d  xdc_runtime_Text_putSite__E                                     
0000713b  DisplayUartMin_init                                             
000071d9  WatchdogCC26XX_open                                             
00007311  __aeabi_memcpy                                                  
00007311  __aeabi_memcpy4                                                 
00007311  __aeabi_memcpy8                                                 
00007311  memcpy                                                          
00007449  PIN_open                                                        
00007579  ti_sysbios_knl_Clock_workFuncDynamic__E                         
00007611  ti_sysbios_knl_Task_blockI__E                                   
000076a9  xdc_runtime_Text_putMod__E                                      
00007741  EasyLink_abort                                                  
000077d5  NOROM_AUXADCDisable                                             
00007869  readAccel                                                       
000078fd  readGyro                                                        
00007991  ti_sysbios_knl_Task_Instance_finalize__E                        
00007a25  ti_sysbios_knl_Task_exit__E                                     
00007b4d  __aeabi_fdiv                                                    
00007bdf  WatchdogCC26XX_close                                            
00007be1  I2CCC26XX_cancel                                                
00007c71  ti_uia_loggers_LoggerStopMode_initQueueDescriptor__E            
00007d8d  RF_pendCmd                                                      
00007e19  UARTCC26XX_close                                                
00007ea5  UARTCC26XX_writeCancel                                          
00007f31  ti_sysbios_family_arm_m3_Hwi_Instance_init__E                   
00007fbd  ti_sysbios_knl_Task_unblockI__E                                 
00008049  ADCCC26XX_open                                                  
00008159  __aeabi_cdcmpeq                                                 
00008159  __aeabi_cdcmple                                                 
000081df  __aeabi_cdrcmple                                                
000082e9  ti_sysbios_family_arm_m3_Hwi_initNVIC__E                        
00008369  ti_sysbios_knl_Task_postInit__I                                 
000083e9  constrainScales                                                 
00008465  __aeabi_fmul                                                    
000084df  __aeabi_memclr                                                  
000084df  __aeabi_memclr4                                                 
000084df  __aeabi_memclr8                                                 
000084e1  __aeabi_memset                                                  
000084e1  __aeabi_memset4                                                 
000084e1  __aeabi_memset8                                                 
000084e7  memset                                                          
00008559  LSM9DS1begin                                                    
00008649  NOROM_SetupSetVddrLevel                                         
000086bd  configInt                                                       
00008731  ti_sysbios_family_arm_cc26xx_Timer_start__E                     
000087a5  ti_sysbios_heaps_HeapMem_allocUnprotected__E                    
00008819  ti_uia_runtime_QueueDescriptor_addToList__E                     
0000888d  xdc_runtime_Core_createObject__I                                
000088fd  xdc_runtime_System_formatNum__I                                 
0000896d  PowerCC26XX_initiateCalibration                                 
000089d9  xdc_runtime_Memory_alloc__E                                     
00008a45  I2CCC26XX_close                                                 
00008aad  I2CreadByte                                                     
00008b15  I2CwriteByte                                                    
00008b7d  NOROM_SetupGetTrimForAmpcompCtrl                                
00008be5  NOROM_SetupGetTrimForAnabypassValue1                            
00008c4d  NOROM_SysCtrl_DCDC_VoltageConditionalControl                    
00008cb5  UARTCC26XX_readCancel                                           
00008d1d  __TI_decompress_lzss                                            
00008e55  __TI_writemsg                                                   
00008e83  C$$IO$$                                                         
00008e87  __TI_readmsg                                                    
00008ebd  ti_sysbios_knl_Clock_startI__E                                  
00008f25  ti_sysbios_knl_Swi_restoreHwi__E                                
00008f8d  ti_uia_loggers_LoggerStopMode_flush__E                          
00008ff3  xdc_runtime_Core_deleteObject__I                                
00009059  NOROM_OSCHF_AttemptToSwitchToXosc                               
00009185  main                                                            
000091e9  ti_sysbios_heaps_HeapMem_initPrimary__I                         
000092b1  NOROM_OSCClockSourceSet                                         
00009311  UARTCC26XX_control                                              
00009551  ti_sysbios_knl_Clock_logTick__E                                 
000095b1  Display_doOpen                                                  
0000960d  NOROM_SysCtrlAdjustRechargeAfterPowerDown                       
00009669  PowerCC26XX_RCOSC_clockFunc                                     
000096c5  PowerCC26XX_calibrate                                           
00009721  createRFRXTasks                                                 
000097d9  ti_sysbios_knl_Task_Module_startup__E                           
00009835  xdc_runtime_Text_putLab__E                                      
000098e9  PIN_remove                                                      
00009999  ti_sysbios_family_arm_m3_Hwi_postInit__I                        
000099f1  ti_sysbios_heaps_HeapMem_alloc__E                               
00009a49  ti_sysbios_heaps_HeapMem_freeUnprotected__E                     
00009aa1  RF_getCurrentTime                                               
00009af5  calcaRes                                                        
00009b49  calcmRes                                                        
00009bf1  C$$EXIT                                                         
00009bf5  abort                                                           
00009bf5  xdc_runtime_System_abortStd__E                                  
00009bfd  exit                                                            
00009bfd  xdc_runtime_System_exitStd__E                                   
00009c45  ti_sysbios_knl_Swi_schedule__I                                  
00009c99  NOROM_SetupSetCacheModeAccordingToCcfgSetting                   
00009ce9  readMag                                                         
00009d89  ti_sysbios_family_arm_m3_Hwi_construct                          
00009dd9  ti_sysbios_knl_Swi_Instance_init__E                             
00009e29  ti_sysbios_knl_Swi_runLoop__I                                   
00009e79  xdc_runtime_Startup_exec__E                                     
00009f61  copy_in                                                         
00009fad  ti_sysbios_family_arm_m3_TaskSupport_buildTaskStack             
00009ff9  ti_sysbios_knl_Swi_construct                                    
0000a045  ti_sysbios_knl_Task_construct                                   
0000a091  ti_uia_loggers_LoggerStopMode_Module_startup__E                 
0000a0dd  DisplayUartMin_open                                             
0000a129  ClockP_construct                                                
0000a171  PIN_setOutputEnable                                             
0000a1b9  calcgRes                                                        
0000a201  clockSetup                                                      
0000a249  pinCallback                                                     
0000a291  __aeabi_d2iz                                                    
0000a2d9  ti_sysbios_family_arm_m3_Hwi_Module_startup__E                  
0000a321  ti_sysbios_family_arm_m3_Hwi_initStacks__E                      
0000a369  ti_sysbios_heaps_HeapMem_getStats__E                            
0000a3b1  xdc_runtime_Assert_raise__I                                     
0000a3f9  xdc_runtime_Core_assignParams__I                                
0000a441  xdc_runtime_Core_constructObject__I                             
0000a489  DisplayUartMin_vprintf                                          
0000a515  RF_releasePowerConstraint                                       
0000a559  RingBuf_put                                                     
0000a59d  ResetISR                                                        
0000a59d  _c_int00                                                        
0000a5e1  initializationTaskFunc                                          
0000a669  __aeabi_d2uiz                                                   
0000a6ad  ti_sysbios_family_arm_m3_Hwi_disableInterrupt__E                
0000a6ad  ti_sysbios_hal_Hwi_HwiProxy_disableInterrupt__E                 
0000a6f1  ti_sysbios_family_arm_m3_Hwi_enableInterrupt__E                 
0000a6f1  ti_sysbios_hal_Hwi_HwiProxy_enableInterrupt__E                  
0000a735  ti_sysbios_knl_Task_allBlockedFunction__I                       
0000a779  ti_uia_loggers_LoggerStopMode_initBuffer__I                     
0000a7bd  xdc_runtime_SysMin_flush__E                                     
0000a7bd  xdc_runtime_System_SupportProxy_flush__E                        
0000a801  xdc_runtime_Text_xprintf__I                                     
0000a845  ADCCC26XX_convertToMicroVolts                                   
0000a885  ADC_init                                                        
0000a8c5  ADC_open                                                        
0000a905  HwiP_construct                                                  
0000a945  I2C_init                                                        
0000a985  I2C_open                                                        
0000a9c5  UART_init                                                       
0000aa05  UART_open                                                       
0000aa45  Watchdog_init                                                   
0000aa85  Watchdog_open                                                   
0000aac5  accelTaskFunc                                                   
0000ab05  gyroTaskFunc                                                    
0000ab45  magTaskFunc                                                     
0000ab85  __aeabi_uidiv                                                   
0000ab85  __aeabi_uidivmod                                                
0000abc5  ti_sysbios_family_arm_cc26xx_Timer_setThreshold__I              
0000ac05  ti_sysbios_family_arm_m3_Hwi_getStackInfo__E                    
0000ac05  ti_sysbios_hal_Hwi_HwiProxy_getStackInfo__E                     
0000ac45  RingBuf_get                                                     
0000ac83  realloc                                                         
0000acc1  ADCCC26XX_close                                                 
0000acfd  NOROM_ChipInfo_GetHwRevision                                    
0000ad39  NOROM_OSC_HPOSCRelativeFrequencyOffsetGet                       
0000ad75  NOROM_RFCSynthPowerDown                                         
0000adb1  PowerCC26XX_isStableXOSC_HF                                     
0000aded  PowerCC26XX_switchXOSC_HF                                       
0000ae29  RF_runCmd                                                       
0000ae65  SwiP_construct                                                  
0000aea1  calibrationTaskFunc                                             
0000aedd  ti_sysbios_family_arm_m3_Hwi_construct2__E                      
0000af19  PIN_setOutputValue                                              
0000afc1  UARTCC26XX_swiIntFxn                                            
0000aff9  createADC1Task                                                  
0000b031  createAccelTask                                                 
0000b069  createCalibrationTask                                           
0000b0a1  createGyroTask                                                  
0000b0d9  createInitializationTask                                        
0000b111  createMagTask                                                   
0000b149  createRFTXTasks                                                 
0000b181  pinSetup                                                        
0000b1f1  __aeabi_f2d                                                     
0000b229  __aeabi_f2iz                                                    
0000b261  __aeabi_i2f                                                     
0000b299  ti_sysbios_family_arm_cc26xx_Timer_getCurrentTick__E            
0000b2d1  ti_sysbios_family_arm_m3_Hwi_Instance_finalize__E               
0000b309  ti_sysbios_heaps_HeapMem_Instance_init__E                       
0000b341  ti_sysbios_knl_Clock_Instance_init__E                           
0000b3b1  xdc_runtime_SysMin_putch__E                                     
0000b3b1  xdc_runtime_System_SupportProxy_putch__E                        
0000b3e9  xdc_runtime_System_atexit__E                                    
0000b421  NOROM_AUXADCDisableInputScaling                                 
0000b455  NOROM_OSCHF_SwitchToRcOscTurnOffXosc                            
0000b489  PIN_setConfig                                                   
0000b4bd  Power_releaseConstraint                                         
0000b525  ti_sysbios_family_arm_cc26xx_Timer_initDevice__I                
0000b559  ti_sysbios_knl_Semaphore_create                                 
0000b58d  SwiP_restore                                                    
0000b58d  ti_sysbios_knl_Swi_restore__E                                   
0000b5c1  ti_uia_loggers_LoggerStopMode_reset__E                          
0000b5f5  wdtSetup                                                        
0000b629  xdc_runtime_Core_assignLabel__I                                 
0000b65d  ti_sysbios_family_arm_cc26xx_Timer_setNextTick__E               
0000b691  NOROM_ChipInfo_GetChipType                                      
0000b6c1  NOROM_SetupSetAonRtcSubSecInc                                   
0000b6f1  Power_setConstraint                                             
0000b721  SafeHapiAuxAdiSelect                                            
0000b751  WatchdogCC26XX_setReload                                        
0000b7b1  initI2C                                                         
0000b811  ti_sysbios_BIOS_atExitFunc__I                                   
0000b841  ti_sysbios_BIOS_startFunc__I                                    
0000b871  ti_sysbios_gates_GateHwi_Object__create__S                      
0000b8a1  ti_sysbios_gates_GateMutex_Object__create__S                    
0000b8d1  ti_sysbios_gates_GateMutex_enter__E                             
0000b901  ti_sysbios_heaps_HeapMem_Object__create__S                      
0000b931  ti_sysbios_heaps_HeapMem_free__E                                
0000b961  ti_sysbios_knl_Clock_construct                                  
0000b991  ti_sysbios_knl_Semaphore_construct                              
0000b9c1  ti_sysbios_knl_Task_processVitalTaskFlag__I                     
0000b9f1  ti_uia_loggers_LoggerStopMode_Object__create__S                 
0000ba21  xdc_runtime_SysMin_abort__E                                     
0000ba21  xdc_runtime_System_SupportProxy_abort__E                        
0000ba51  xdc_runtime_System_processAtExit__E                             
0000ba81  xdc_runtime_Text_printVisFxn__I                                 
0000bab1  __aeabi_i2d                                                     
0000badf  ti_sysbios_family_arm_m3_TaskSupport_start__E                   
0000badf  ti_sysbios_knl_Task_SupportProxy_start__E                       
0000bb0d  ti_sysbios_hal_Hwi_initStack                                    
0000bb3b  malloc                                                          
0000bb69  NOROM_DDI32RegWrite                                             
0000bb95  NOROM_OSCClockSourceGet                                         
0000bbc1  NOROM_RFCCPEPatchReset                                          
0000bbed  NOROM_SetupGetTrimForRadcExtCfg                                 
0000bc19  PINCC26XX_setMux                                                
0000bc45  SemaphoreP_constructBinary                                      
0000bc71  SemaphoreP_createBinary                                         
0000bc9d  calcAccel                                                       
0000bcf5  ti_sysbios_knl_Clock_getTicksUntilInterrupt__E                  
0000bd21  ti_sysbios_knl_Queue_construct                                  
0000bd4d  ti_sysbios_knl_Semaphore_pendTimeout__I                         
0000bd79  xdc_runtime_Text_cordText__E                                    
0000bda5  Display_doPrintf                                                
0000bdcf  ti_sysbios_knl_Clock_getTimeout__E                              
0000bdf9  xdc_runtime_System_putchar__I                                   
0000be25  Display_doInit                                                  
0000be4d  NOROM_AONBatMonTemperatureGetDegC                               
0000be75  Power_registerNotify                                            
0000be9d  SafeHapiVoid                                                    
0000bec5  WatchdogCC26XX_convertMsToTicks                                 
0000beed  adc1Setup                                                       
0000bf15  clk0Fxn                                                         
0000bf3d  ti_sysbios_knl_Clock_addI__E                                    
0000bf65  ti_sysbios_knl_Task_restore__E                                  
0000bf8d  NOROM_RFCDoorbellSendTo                                         
0000bfb1  PINCC26XX_getPinCount                                           
0000bff9  mReadBytes                                                      
0000c01d  rxRestartFunc                                                   
0000c041  ti_sysbios_BIOS_registerRTSLock__I                              
0000c065  ti_sysbios_BIOS_removeRTSLock__I                                
0000c089  ti_sysbios_family_arm_cc26xx_Timer_Module_startup__E            
0000c0ad  ti_sysbios_family_arm_cc26xx_Timer_getMaxTicks__E               
0000c0d1  ti_sysbios_family_arm_cc26xx_Timer_startup__E                   
0000c0d1  ti_sysbios_knl_Clock_TimerProxy_startup__E                      
0000c0f5  ti_sysbios_gates_GateMutex_Object__delete__S                    
0000c119  ti_sysbios_knl_Semaphore_Instance_init__E                       
0000c13d  ti_sysbios_knl_Semaphore_Object__delete__S                      
0000c161  ti_sysbios_knl_Swi_Module_startup__E                            
0000c185  xgReadBytes                                                     
0000c1a9  List_put                                                        
0000c1cb  NOROM_AUXADCAdjustValueForGainAndOffset                         
0000c1ed  ti_sysbios_family_arm_cc26xx_Timer_postInit__I                  
0000c20f  xdc_runtime_SysMin_output__I                                    
0000c231  NOROM_RFCAdi3VcoLdoVoltageMode                                  
0000c251  NOROM_SetupGetTrimForXoscHfCtl                                  
0000c271  PowerCC26XX_schedulerDisable                                    
0000c291  PowerCC26XX_schedulerRestore                                    
0000c2b1  Power_unregisterNotify                                          
0000c2d1  calcGyro                                                        
0000c2f1  displaySetup                                                    
0000c311  mWriteByte                                                      
0000c331  ti_sysbios_BIOS_rtsLock__I                                      
0000c351  ti_sysbios_family_arm_cc26xx_Timer_dynamicStub__E               
0000c371  ti_sysbios_family_arm_cc26xx_TimestampProvider_Module_startup__E
0000c391  ti_sysbios_family_arm_m3_Hwi_excHandlerAsm__I                   
0000c3b1  ti_sysbios_family_arm_m3_Hwi_excHandler__I                      
0000c3d1  ti_sysbios_gates_GateHwi_Object__delete__S                      
0000c3f1  ti_sysbios_heaps_HeapMem_Object__delete__S                      
0000c411  ti_sysbios_knl_Clock_Module_startup__E                          
0000c431  ti_sysbios_knl_Clock_destruct                                   
0000c451  ClockP_getSystemTicks                                           
0000c451  ti_sysbios_knl_Clock_getTicks__E                                
0000c471  ti_sysbios_knl_Clock_stop__E                                    
0000c491  ti_sysbios_knl_Idle_run__E                                      
0000c4b1  ti_sysbios_knl_Semaphore_destruct                               
0000c4d1  ti_sysbios_knl_Task_restoreHwi__E                               
0000c4f1  ti_uia_loggers_LoggerStopMode_Object__delete__S                 
0000c511  xdc_runtime_Registry_findById__E                                
0000c531  xdc_runtime_SysMin_Module_startup__E                            
0000c551  xgWriteByte                                                     
0000c571  PIN_close                                                       
0000c58f  Power_getTransitionLatency                                      
0000c5ad  ti_sysbios_family_xxx_Hwi_switchAndRunFunc                      
0000c5cb  __aeabi_idiv0                                                   
0000c5cd  NOROM_AUXADCGetAdjustmentGain                                   
0000c5e9  NOROM_ChipInfo_GetChipFamily                                    
0000c605  NOROM_SetupGetTrimForAmpcompTh2                                 
0000c621  NOROM_SetupGetTrimForRcOscLfRtuneCtuneTrim                      
0000c675  RF_setPowerConstraint                                           
0000c755  ti_sysbios_family_arm_m3_Hwi_destruct                           
0000c771  ti_sysbios_family_arm_m3_Hwi_setPriority__E                     
0000c78d  ti_sysbios_gates_GateMutex_Instance_init__E                     
0000c7a9  ti_sysbios_knl_Clock_scheduleNextTick__E                        
0000c7c5  ti_sysbios_knl_Queue_destruct                                   
0000c7e1  ti_sysbios_knl_Queue_put__E                                     
0000c7fd  ti_sysbios_knl_Swi_construct2__E                                
0000c819  ti_sysbios_knl_Swi_destruct                                     
0000c835  ti_sysbios_knl_Task_enter__I                                    
0000c851  ti_uia_loggers_LoggerStopMode_Instance_init__E                  
0000c86d  xdc_runtime_Error_check__E                                      
0000c889  xdc_runtime_Error_raiseX__E                                     
0000c8a5  xdc_runtime_Memory_valloc__E                                    
0000c8c1  xdc_runtime_SysMin_exit__E                                      
0000c8c1  xdc_runtime_System_SupportProxy_exit__E                         
0000c8dd  xdc_runtime_System_abort__E                                     
0000c8f9  ti_sysbios_family_arm_m3_Hwi_pendSV__I                          
0000c911  ti_sysbios_family_arm_m3_Hwi_return                             
0000c913  ti_sysbios_BIOS_linkedWithIncorrectBootLibrary__E               
0000c915  CC1310_LAUNCHXL_initGeneral                                     
0000c92d  NOROM_AONRTCCurrentCompareValueGet                              
0000c945  NOROM_AUXADCGetAdjustmentOffset                                 
0000c95d  NOROM_ChipInfo_GetPackageType                                   
0000c975  NOROM_OSCHF_TurnOnXosc                                          
0000c98d  NOROM_RFCCpeIntGetAndClear                                      
0000c9a5  NOROM_SetupGetTrimForAdcShModeEn                                
0000c9bd  NOROM_SetupGetTrimForAdcShVbufEn                                
0000c9d5  NOROM_SetupGetTrimForAmpcompTh1                                 
0000c9ed  NOROM_SetupGetTrimForDblrLoopFilterResetVoltage                 
0000ca05  NOROM_SetupGetTrimForRcOscLfIBiasTrim                           
0000ca1d  NOROM_SetupGetTrimForXoscLfRegulatorAndCmirrwrRatio             
0000ca35  Power_idleFunc                                                  
0000ca4d  UARTCC26XX_init                                                 
0000ca65  UART_Params_init                                                
0000ca95  free                                                            
0000caad  mReadByte                                                       
0000cac5  _args_main                                                      
0000cadd  __aeabi_lmul                                                    
0000cb0d  ti_sysbios_BIOS_rtsUnlock__I                                    
0000cb25  ti_sysbios_family_arm_cc26xx_Timer_Module__startupDone__F       
0000cb25  ti_sysbios_family_arm_cc26xx_Timer_Module__startupDone__S       
0000cb25  ti_sysbios_knl_Clock_TimerProxy_Module__startupDone__S          
0000cb3d  ti_sysbios_family_arm_cc26xx_TimestampProvider_get64__E         
0000cb3d  xdc_runtime_Timestamp_SupportProxy_get64__E                     
0000cb55  ti_sysbios_family_arm_m3_Hwi_Module__startupDone__F             
0000cb55  ti_sysbios_family_arm_m3_Hwi_Module__startupDone__S             
0000cb55  ti_sysbios_hal_Hwi_HwiProxy_Module__startupDone__S              
0000cb6d  ti_sysbios_family_arm_m3_Hwi_plug__E                            
0000cb85  ti_sysbios_gates_GateHwi_Handle__label__S                       
0000cb85  xdc_runtime_Main_Module_GateProxy_Handle__label__S              
0000cb85  xdc_runtime_System_Module_GateProxy_Handle__label__S            
0000cb9d  ti_sysbios_BIOS_RtsGateProxy_Handle__label__S                   
0000cb9d  ti_sysbios_gates_GateMutex_Handle__label__S                     
0000cb9d  ti_sysbios_heaps_HeapMem_Module_GateProxy_Handle__label__S      
0000cbb5  ti_sysbios_gates_GateMutex_leave__E                             
0000cbcd  ti_sysbios_heaps_HeapMem_Handle__label__S                       
0000cbcd  xdc_runtime_Memory_HeapProxy_Handle__label__S                   
0000cbe5  ti_sysbios_knl_Swi_or__E                                        
0000cbfd  ti_sysbios_knl_Task_unblock__E                                  
0000cc15  ti_uia_loggers_LoggerStopMode_Handle__label__S                  
0000cc2d  xdc_runtime_Error_init__E                                       
0000cc45  xdc_runtime_System_exit__E                                      
0000cc5d  xdc_runtime_Text_ropeText__E                                    
0000cc75  xgReadByte                                                      
0000cc8d  DisplayUartMin_close                                            
0000cca3  List_remove                                                     
0000ccb9  NOROM_ThisLibraryIsFor_CC13x0_HwRev20AndLater_HaltIfViolated    
0000cce5  strcpy                                                          
0000ccfb  ti_sysbios_BIOS_exitFunc__I                                     
0000cd11  ti_sysbios_knl_Clock_Instance_finalize__E                       
0000cd3d  ti_sysbios_knl_Clock_start__E                                   
0000cd7f  ti_uia_loggers_LoggerStopMode_disable__E                        
0000cd95  ti_uia_loggers_LoggerStopMode_enable__E                         
0000cdab  ti_sysbios_BIOS_nullFunc__I                                     
0000cdad  NOROM_AONRTCCurrent64BitValueGet                                
0000cdc1  NOROM_AUXADCValueToMicrovolts                                   
0000cdd5  PIN_getOutputValue                                              
0000cde9  RF_Params_init                                                  
0000cdfd  _register_unlock                                                
0000ce03  _register_lock                                                  
0000ce0b  _nop                                                            
0000ce11  strlen                                                          
0000ce25  ti_sysbios_family_arm_m3_Hwi_Object__get__S                     
0000ce39  ti_sysbios_family_arm_m3_Hwi_switchFromBootStack__E             
0000ce39  ti_sysbios_hal_Hwi_HwiProxy_switchFromBootStack__E              
0000ce4d  ti_sysbios_heaps_HeapMem_Object__get__S                         
0000ce61  ti_sysbios_knl_Clock_doTick__I                                  
0000ce75  ti_sysbios_knl_Swi_Object__get__S                               
0000ce89  RingBuf_construct                                               
0000ce9b  SemaphoreP_pend                                                 
0000cead  ti_sysbios_hal_Hwi_Module_startup__E                            
0000cebf  xdc_runtime_Startup_exec__I                                     
0000ced1  ClockP_isActive                                                 
0000cee1  HwiP_Params_init                                                
0000cef1  I2C_Params_init                                                 
0000cf01  NOROM_AUXADCFlushFifo                                           
0000cf11  NOROM_AUXADCReadFifo                                            
0000cf21  NOROM_RFCRfTrimSet                                              
0000cf31  NOROM_SetupGetTrimForXoscHfFastStart                            
0000cf41  NOROM_SetupGetTrimForXoscHfIbiastherm                           
0000cf51  SwiP_Params_init                                                
0000cf61  WatchdogCC26XX_clear                                            
0000cf71  Watchdog_Params_init                                            
0000cfe1  ti_sysbios_BIOS_exit__E                                         
0000cff1  ti_sysbios_BIOS_getCpuFreq__E                                   
0000d001  ti_sysbios_BIOS_setThreadType__E                                
0000d011  ti_sysbios_BIOS_start__E                                        
0000d021  ti_sysbios_family_arm_m3_Hwi_post__E                            
0000d021  ti_sysbios_hal_Hwi_HwiProxy_post__E                             
0000d031  ti_sysbios_family_arm_m3_TaskSupport_glue                       
0000d041  ti_sysbios_family_arm_m3_TaskSupport_swap__E                    
0000d041  ti_sysbios_knl_Task_SupportProxy_swap__E                        
0000d049  ti_sysbios_knl_Task_swapReturn                                  
0000d051  ti_sysbios_gates_GateMutex_Instance_finalize__E                 
0000d061  ti_sysbios_knl_Semaphore_Instance_finalize__E                   
0000d071  ti_sysbios_knl_Swi_disable__E                                   
0000d081  ti_sysbios_knl_Swi_enabled__E                                   
0000d091  ti_sysbios_knl_Task_Object__get__S                              
0000d0a1  ti_sysbios_knl_Task_disable__E                                  
0000d0b1  ti_uia_loggers_LoggerStopMode_Object__get__S                    
0000d0c1  ti_uia_loggers_LoggerStopMode_isEmpty__E                        
0000d0e1  xdc_runtime_Gate_leaveSystem__E                                 
0000d0f1  xdc_runtime_Memory_free__E                                      
0000d101  xdc_runtime_SysMin_ready__E                                     
0000d101  xdc_runtime_System_SupportProxy_ready__E                        
0000d111  xdc_runtime_System_vsnprintf__E                                 
0000d121  NOROM_VIMSModeGet                                               
0000d12f  __TI_decompress_none                                            
0000d13d  ti_sysbios_heaps_HeapMem_restore__E                             
0000d14b  ti_sysbios_knl_Queue_empty__E                                   
0000d159  ti_sysbios_knl_Queue_remove__E                                  
0000d167  ti_sysbios_gates_GateHwi_Instance_init__E                       
0000d175  List_empty                                                      
0000d181  NOROM_CPUcpsid                                                  
0000d18d  NOROM_CPUcpsie                                                  
0000d199  NOROM_OSC_HPOSCRelativeFrequencyOffsetToRFCoreFormatConvert     
0000d1a5  PIN_registerIntCb                                               
0000d1b1  Power_getConstraintMask                                         
0000d1bd  Power_getDependencyCount                                        
0000d1c9  SemaphoreP_delete                                               
0000d1d5  __TI_zero_init                                                  
0000d1e1  ti_sysbios_BIOS_getThreadType__E                                
0000d1ed  ti_sysbios_family_arm_m3_Hwi_Params__init__S                    
0000d1ed  ti_sysbios_hal_Hwi_HwiProxy_Params__init__S                     
0000d1f9  ti_sysbios_family_arm_m3_Hwi_disableFxn__E                      
0000d1f9  ti_sysbios_hal_Hwi_HwiProxy_disable__E                          
0000d205  ti_sysbios_family_arm_m3_TaskSupport_getStackAlignment__E       
0000d205  ti_sysbios_knl_Task_SupportProxy_getStackAlignment__E           
0000d211  ti_sysbios_gates_GateHwi_enter__E                               
0000d21d  ti_sysbios_knl_Clock_Params__init__S                            
0000d229  ti_sysbios_knl_Clock_getTimerHandle__E                          
0000d235  ti_sysbios_knl_Queue_Object__get__S                             
0000d241  ti_sysbios_knl_Queue_dequeue__E                                 
0000d24d  ti_sysbios_knl_Queue_enqueue__E                                 
0000d259  ti_sysbios_knl_Semaphore_Params__init__S                        
0000d271  ti_sysbios_knl_Swi_Params__init__S                              
0000d27d  ti_sysbios_knl_Swi_getTrigger__E                                
0000d289  ti_sysbios_knl_Task_Params__init__S                             
0000d295  ti_sysbios_knl_Task_self__E                                     
0000d2a1  xdc_runtime_Gate_enterSystem__E                                 
0000d2ad  xdc_runtime_Memory_calloc__E                                    
0000d2b9  xdc_runtime_Memory_getMaxDefaultTypeAlign__E                    
0000d2c5  xdc_runtime_Startup_rtsDone__E                                  
0000d2d1  ADC_Params_init                                                 
0000d2db  ADC_convert                                                     
0000d2e5  ADC_convertToMicroVolts                                         
0000d2ef  I2CCC26XX_init                                                  
0000d2f9  I2C_transfer                                                    
0000d303  UART_close                                                      
0000d30d  UART_control                                                    
0000d317  UART_write                                                      
0000d321  Watchdog_clear                                                  
0000d32b  Watchdog_setReload                                              
0000d335  xdc_runtime_Memory_HeapProxy_alloc__E                           
0000d33f  xdc_runtime_Memory_HeapProxy_free__E                            
0000d349  ADCCC26XX_init                                                  
0000d359  WatchdogCC26XX_init                                             
0000d391  ti_sysbios_family_arm_m3_Hwi_doSwiRestore__I                    
0000d399  ti_sysbios_family_arm_m3_Hwi_startup__E                         
0000d399  ti_sysbios_hal_Hwi_HwiProxy_startup__E                          
0000d3a1  ti_sysbios_knl_Idle_loop__E                                     
0000d3b1  xdc_runtime_Text_visitRope__I                                   
0000d3b9  ADCCC26XX_control                                               
0000d3bf  ClockP_Params_init                                              
0000d3c5  DisplayUartMin_control                                          
0000d3cb  DisplayUartMin_getType                                          
0000d3d1  I2CCC26XX_control                                               
0000d3d7  NOROM_CPUdelay                                                  
0000d3dd  UARTCC26XX_readPolling                                          
0000d3e3  UARTCC26XX_writePolling                                         
0000d3e9  WatchdogCC26XX_control                                          
0000d3f5  ti_sysbios_family_arm_m3_Hwi_doTaskRestore__I                   
0000d3fb  HwiP_restore                                                    
0000d3fb  ti_sysbios_family_arm_m3_Hwi_restoreFxn__E                      
0000d3fb  ti_sysbios_hal_Hwi_HwiProxy_restore__E                          
0000d401  ti_sysbios_family_arm_m3_Hwi_setFunc__E                         
0000d407  ti_sysbios_gates_GateHwi_leave__E                               
0000d40d  ti_sysbios_heaps_HeapMem_isBlocking__E                          
0000d413  ti_sysbios_knl_Queue_Instance_init__E                           
0000d419  ti_sysbios_knl_Queue_elemClear__E                               
0000d41f  ti_sysbios_knl_Swi_startup__E                                   
0000d425  xdc_runtime_System_Module_startup__E                            
0000d42f  ClockP_destruct                                                 
0000d433  ClockP_getCpuFreq                                               
0000d437  ClockP_getTimeout                                               
0000d43b  ClockP_setTimeout                                               
0000d43f  ClockP_start                                                    
0000d443  ClockP_stop                                                     
0000d447  HwiP_destruct                                                   
0000d44b  HwiP_disable                                                    
0000d44f  HwiP_disableInterrupt                                           
0000d453  HwiP_enableInterrupt                                            
0000d457  HwiP_plug                                                       
0000d45b  HwiP_post                                                       
0000d45f  HwiP_setFunc                                                    
0000d463  List_head                                                       
0000d467  List_next                                                       
0000d46f  SemaphoreP_destruct                                             
0000d473  SemaphoreP_post                                                 
0000d477  SwiP_destruct                                                   
0000d47b  SwiP_disable                                                    
0000d47f  SwiP_getTrigger                                                 
0000d483  SwiP_or                                                         
0000d487  SwiP_post                                                       
0000d48b  SystemP_vsnprintf                                               
0000d493  __abort_execution                                               
0000d497  ti_sysbios_BIOS_RtsGateProxy_enter__E                           
0000d49b  ti_sysbios_BIOS_RtsGateProxy_leave__E                           
0000d49f  ti_sysbios_family_arm_cc26xx_Timer_getCount64__E                
0000d4a3  ti_sysbios_family_arm_cc26xx_Timer_setPeriod__E                 
0000d4a7  ti_sysbios_family_arm_m3_TaskSupport_Module__startupDone__S     
0000d4a7  ti_sysbios_knl_Task_SupportProxy_Module__startupDone__S         
0000d4ab  ti_sysbios_gates_GateHwi_query__E                               
0000d4ab  xdc_runtime_Main_Module_GateProxy_query__E                      
0000d4ab  xdc_runtime_System_Module_GateProxy_query__E                    
0000d4af  ti_sysbios_BIOS_RtsGateProxy_query__E                           
0000d4af  ti_sysbios_gates_GateMutex_query__E                             
0000d4af  ti_sysbios_heaps_HeapMem_Module_GateProxy_query__E              
0000d4b3  ti_sysbios_heaps_HeapMem_Module_GateProxy_enter__E              
0000d4b7  ti_sysbios_heaps_HeapMem_Module_GateProxy_leave__E              
0000d4bb  ti_sysbios_knl_Clock_TimerProxy_getCurrentTick__E               
0000d4bf  ti_sysbios_knl_Clock_TimerProxy_getMaxTicks__E                  
0000d4c3  ti_sysbios_knl_Clock_TimerProxy_setNextTick__E                  
0000d4c7  ti_sysbios_knl_Clock_isActive__E                                
0000d4cb  ti_sysbios_knl_Clock_removeI__E                                 
0000d4cf  ti_sysbios_knl_Clock_setTimeout__E                              
0000d4d3  ti_sysbios_knl_Queue_head__E                                    
0000d4d7  ti_sysbios_knl_Queue_next__E                                    
0000d4db  ti_sysbios_knl_Semaphore_delete                                 
0000d4df  ti_sysbios_knl_Swi_postInit__I                                  
0000d4e3  ti_sysbios_knl_Task_startup__E                                  
0000d4e7  ti_uia_loggers_LoggerStopMode_getContents__E                    
0000d4eb  ti_uia_loggers_LoggerStopMode_getFilterLevel__E                 
0000d4ef  ti_uia_loggers_LoggerStopMode_getInstanceId__E                  
0000d4f3  ti_uia_loggers_LoggerStopMode_getMaxLength__E                   
0000d4f7  ti_uia_loggers_LoggerStopMode_getPriority__E                    
0000d4fb  ti_uia_loggers_LoggerStopMode_getTransferType__E                
0000d4ff  xdc_runtime_System_Module_GateProxy_enter__E                    
0000d503  xdc_runtime_System_Module_GateProxy_leave__E                    
0000d507  ti_sysbios_knl_Clock_triggerFunc__I                             
0000d509  ti_sysbios_knl_Swi_Instance_finalize__E                         
0000d50b  ti_uia_loggers_LoggerStopMode_setFilterLevel__E                 
0000d50d  ti_uia_loggers_LoggerStopMode_setPriority__E                    
0000d50f  xdc_runtime_Error_policySpin__E                                 
0000d511  xdc_runtime_System_abortSpin__E                                 
0000d513  xdc_runtime_System_exitSpin__E                                  
000118b8  ADC_config                                                      
0001193c  ti_uia_loggers_LoggerStopMode_Module__FXNS__C                   
0001199c  adcCC26xxHWAttrs                                                
000119e9  Display_defaultParams                                           
000119ea  resourceDB                                                      
00011a36  ti_sysbios_family_arm_cc26xx_TimestampProvider_useClockTimer__C 
00011ac0  rfPowerTable                                                    
00011b00  ti_sysbios_knl_Task_Object__PARAMS__C                           
00011b3c  ti_sysbios_family_arm_m3_Hwi_Object__PARAMS__C                  
00011b6c  BoardGpioInitTable                                              
00011b98  UARTCC26XX_fxnTable                                             
00011bc0  ti_sysbios_heaps_HeapMem_Module__FXNS__C                        
00011be8  ti_sysbios_knl_Swi_Object__PARAMS__C                            
00011c10  ti_uia_loggers_LoggerStopMode_Object__PARAMS__C                 
00011c38  xdc_runtime_Startup_sfxnTab__A                                  
00011c60  UART_defaultParams                                              
00011c84  ti_sysbios_gates_GateHwi_Module__FXNS__C                        
00011ca8  ti_sysbios_gates_GateMutex_Module__FXNS__C                      
00011ccc  ti_sysbios_heaps_HeapMem_Object__PARAMS__C                      
00011cf0  ti_sysbios_knl_Clock_Object__PARAMS__C                          
00011d14  ti_sysbios_knl_Semaphore_Object__PARAMS__C                      
00011d38  DisplayUartMin_fxnTable                                         
00011d58  ti_sysbios_family_arm_m3_Hwi_Object__DESC__C                    
00011d78  ti_sysbios_gates_GateHwi_Object__DESC__C                        
00011d98  ti_sysbios_gates_GateMutex_Object__DESC__C                      
00011db8  ti_sysbios_heaps_HeapMem_Object__DESC__C                        
00011dd8  ti_sysbios_knl_Clock_Object__DESC__C                            
00011df8  ti_sysbios_knl_Queue_Object__DESC__C                            
00011e18  ti_sysbios_knl_Semaphore_Object__DESC__C                        
00011e38  ti_sysbios_knl_Swi_Object__DESC__C                              
00011e58  ti_sysbios_knl_Task_Object__DESC__C                             
00011e78  ti_uia_loggers_LoggerStopMode_Object__DESC__C                   
00011e98  uartCC26XXHWAttrs                                               
00011ed4  WatchdogCC26XX_fxnTable                                         
00011f08  ADCCC26XX_fxnTable                                              
00011f20  I2CCC26XX_fxnTable                                              
00011f38  i2cCC26xxHWAttrs                                                
00011f68  ti_sysbios_gates_GateHwi_Object__PARAMS__C                      
00011f80  ti_sysbios_gates_GateMutex_Object__PARAMS__C                    
00011f98  ti_sysbios_knl_Queue_Object__PARAMS__C                          
00011fb0  displayUartHWAttrs                                              
00011fc4  xdc_runtime_Startup_sfxnRts__A                                  
00011fd8  I2C_defaultParams                                               
00011fe8  PowerCC26XX_config                                              
00011ff8  Display_config                                                  
00012004  I2C_config                                                      
00012010  UART_config                                                     
0001201c  Watchdog_config                                                 
00012028  Watchdog_defaultParams                                          
00012034  xdc_runtime_Startup_firstFxns__A                                
00012040  ADCBuf_count                                                    
00012041  ADC_count                                                       
00012042  Display_count                                                   
00012043  I2C_count                                                       
00012044  NVS_count                                                       
00012045  PWM_count                                                       
00012046  SPI_count                                                       
00012047  UART_count                                                      
00012048  Watchdog_count                                                  
00012049  rfPowerTableSize                                                
0001204a  ti_sysbios_family_arm_m3_Hwi_Module__id__C                      
0001204c  ADC_defaultParams                                               
00012054  PINCC26XX_hwAttrs                                               
00012064  ti_sysbios_knl_Idle_funcList__C                                 
0001206c  watchdogCC26XXHWAttrs                                           
00012074  xdc_runtime_Startup_firstFxns__C                                
0001207c  xdc_runtime_Startup_lastFxns__C                                 
00012088  RFCC26XX_hwAttrs                                                
0001208c  ti_sysbios_family_arm_cc26xx_Timer_startupNeeded__C             
00012090  ti_sysbios_family_arm_m3_Hwi_E_alreadyDefined__C                
00012094  ti_sysbios_family_arm_m3_Hwi_LD_end__C                          
00012098  ti_sysbios_family_arm_m3_Hwi_LM_begin__C                        
0001209c  ti_sysbios_family_arm_m3_Hwi_Module__diagsEnabled__C            
000120a0  ti_sysbios_family_arm_m3_Hwi_Module__diagsIncluded__C           
000120a4  ti_sysbios_family_arm_m3_Hwi_Module__diagsMask__C               
000120a8  ti_sysbios_family_arm_m3_Hwi_Module__loggerFxn1__C              
000120ac  ti_sysbios_family_arm_m3_Hwi_Module__loggerFxn8__C              
000120b0  ti_sysbios_family_arm_m3_Hwi_Module__loggerObj__C               
000120b4  ti_sysbios_family_arm_m3_Hwi_NUM_INTERRUPTS__C                  
000120b8  ti_sysbios_family_arm_m3_Hwi_Object__count__C                   
000120bc  ti_sysbios_family_arm_m3_Hwi_ccr__C                             
000120c0  ti_sysbios_family_arm_m3_Hwi_excHandlerFunc__C                  
000120c4  ti_sysbios_family_arm_m3_Hwi_nullIsrFunc__C                     
000120c8  ti_sysbios_family_arm_m3_Hwi_priGroup__C                        
000120cc  ti_sysbios_family_arm_m3_Hwi_swiDisable__C                      
000120d0  ti_sysbios_family_arm_m3_Hwi_swiRestoreHwi__C                   
000120d4  ti_sysbios_family_arm_m3_TaskSupport_stackAlignment__C          
000120d8  ti_sysbios_gates_GateMutex_Instance_State_sem__O                
000120dc  ti_sysbios_heaps_HeapMem_E_memory__C                            
000120e0  ti_sysbios_heaps_HeapMem_Module__gateObj__C                     
000120e4  ti_sysbios_heaps_HeapMem_Object__count__C                       
000120e8  ti_sysbios_heaps_HeapMem_primaryHeapBaseAddr__C                 
000120ec  ti_sysbios_heaps_HeapMem_primaryHeapEndAddr__C                  
000120f0  ti_sysbios_heaps_HeapMem_reqAlign__C                            
000120f4  ti_sysbios_knl_Clock_LM_begin__C                                
000120f8  ti_sysbios_knl_Clock_LM_tick__C                                 
000120fc  ti_sysbios_knl_Clock_Module_State_clockQ__O                     
00012100  ti_sysbios_knl_Clock_Module__diagsEnabled__C                    
00012104  ti_sysbios_knl_Clock_Module__diagsIncluded__C                   
00012108  ti_sysbios_knl_Clock_Module__diagsMask__C                       
0001210c  ti_sysbios_knl_Clock_Module__loggerFxn1__C                      
00012110  ti_sysbios_knl_Clock_Module__loggerFxn2__C                      
00012114  ti_sysbios_knl_Clock_Module__loggerObj__C                       
00012118  ti_sysbios_knl_Clock_tickPeriod__C                              
0001211c  ti_sysbios_knl_Clock_triggerClock__C                            
00012120  ti_sysbios_knl_Idle_funcList__A                                 
00012124  ti_sysbios_knl_Semaphore_Instance_State_pendQ__O                
00012128  ti_sysbios_knl_Semaphore_LM_pend__C                             
0001212c  ti_sysbios_knl_Semaphore_LM_post__C                             
00012130  ti_sysbios_knl_Semaphore_Module__diagsEnabled__C                
00012134  ti_sysbios_knl_Semaphore_Module__diagsIncluded__C               
00012138  ti_sysbios_knl_Semaphore_Module__diagsMask__C                   
0001213c  ti_sysbios_knl_Semaphore_Module__loggerFxn2__C                  
00012140  ti_sysbios_knl_Semaphore_Module__loggerFxn4__C                  
00012144  ti_sysbios_knl_Semaphore_Module__loggerObj__C                   
00012148  ti_sysbios_knl_Swi_LD_end__C                                    
0001214c  ti_sysbios_knl_Swi_LM_begin__C                                  
00012150  ti_sysbios_knl_Swi_LM_post__C                                   
00012154  ti_sysbios_knl_Swi_Module__diagsEnabled__C                      
00012158  ti_sysbios_knl_Swi_Module__diagsIncluded__C                     
0001215c  ti_sysbios_knl_Swi_Module__diagsMask__C                         
00012160  ti_sysbios_knl_Swi_Module__loggerFxn1__C                        
00012164  ti_sysbios_knl_Swi_Module__loggerFxn4__C                        
00012168  ti_sysbios_knl_Swi_Module__loggerObj__C                         
0001216c  ti_sysbios_knl_Swi_Object__count__C                             
00012170  ti_sysbios_knl_Task_LD_block__C                                 
00012174  ti_sysbios_knl_Task_LD_exit__C                                  
00012178  ti_sysbios_knl_Task_LD_ready__C                                 
0001217c  ti_sysbios_knl_Task_LM_switch__C                                
00012180  ti_sysbios_knl_Task_LM_yield__C                                 
00012184  ti_sysbios_knl_Task_Module_State_inactiveQ__O                   
00012188  ti_sysbios_knl_Task_Module__diagsEnabled__C                     
0001218c  ti_sysbios_knl_Task_Module__diagsIncluded__C                    
00012190  ti_sysbios_knl_Task_Module__diagsMask__C                        
00012194  ti_sysbios_knl_Task_Module__loggerFxn2__C                       
00012198  ti_sysbios_knl_Task_Module__loggerFxn4__C                       
0001219c  ti_sysbios_knl_Task_Module__loggerObj__C                        
000121a0  ti_sysbios_knl_Task_Object__count__C                            
000121a4  ti_sysbios_knl_Task_allBlockedFunc__C                           
000121a8  ti_sysbios_knl_Task_defaultStackHeap__C                         
000121ac  ti_sysbios_knl_Task_defaultStackSize__C                         
000121b0  ti_sysbios_knl_Task_numConstructedTasks__C                      
000121b4  ti_uia_loggers_LoggerStopMode_Module__diagsEnabled__C           
000121b8  ti_uia_loggers_LoggerStopMode_Module__diagsIncluded__C          
000121bc  ti_uia_loggers_LoggerStopMode_Module__diagsMask__C              
000121c0  ti_uia_loggers_LoggerStopMode_Object__count__C                  
000121c4  ti_uia_runtime_ILoggerSnapshot_Interface__BASE__C               
000121c8  ti_uia_runtime_IUIATransfer_Interface__BASE__C                  
000121cc  xdc_runtime_Assert_E_assertFailed__C                            
000121d0  xdc_runtime_Error_E_memory__C                                   
000121d4  xdc_runtime_Error_policyFxn__C                                  
000121d8  xdc_runtime_IFilterLogger_Interface__BASE__C                    
000121dc  xdc_runtime_IGateProvider_Interface__BASE__C                    
000121e0  xdc_runtime_IHeap_Interface__BASE__C                            
000121e4  xdc_runtime_ILogger_Interface__BASE__C                          
000121e8  xdc_runtime_IModule_Interface__BASE__C                          
000121ec  xdc_runtime_Memory_defaultHeapInstance__C                       
000121f0  xdc_runtime_Startup_execImpl__C                                 
000121f4  xdc_runtime_Startup_maxPasses__C                                
000121f8  xdc_runtime_Startup_sfxnRts__C                                  
000121fc  xdc_runtime_Startup_sfxnTab__C                                  
00012200  xdc_runtime_SysMin_bufSize__C                                   
00012204  xdc_runtime_SysMin_outputFunc__C                                
00012208  xdc_runtime_System_Module__gateObj__C                           
0001220c  xdc_runtime_System_abortFxn__C                                  
00012210  xdc_runtime_System_exitFxn__C                                   
00012214  xdc_runtime_System_extendFxn__C                                 
00012218  xdc_runtime_System_maxAtexitHandlers__C                         
0001221c  xdc_runtime_Text_charTab__C                                     
00012220  xdc_runtime_Text_nameEmpty__C                                   
00012224  xdc_runtime_Text_nameStatic__C                                  
00012228  xdc_runtime_Text_nameUnknown__C                                 
0001222c  xdc_runtime_Text_visitRopeFxn__C                                
00012230  ti_sysbios_family_arm_m3_Hwi_Module__loggerDefined__C           
00012232  ti_sysbios_heaps_HeapMem_Module__id__C                          
00012234  ti_sysbios_knl_Clock_Module__id__C                              
00012236  ti_sysbios_knl_Clock_Module__loggerDefined__C                   
00012238  ti_sysbios_knl_Semaphore_Module__id__C                          
0001223a  ti_sysbios_knl_Semaphore_Module__loggerDefined__C               
0001223c  ti_sysbios_knl_Swi_Module__id__C                                
0001223e  ti_sysbios_knl_Swi_Module__loggerDefined__C                     
00012240  ti_sysbios_knl_Task_Module__id__C                               
00012242  ti_sysbios_knl_Task_Module__loggerDefined__C                    
00012244  ti_uia_loggers_LoggerStopMode_Module__id__C                     
00012246  ti_uia_loggers_LoggerStopMode_isTimestampEnabled__C             
00012248  xdc_runtime_Memory_Module__id__C                                
0001224a  xdc_runtime_SysMin_flushAtExit__C                               
0001224c  xdc_runtime_Text_charCnt__C                                     
0001224e  xdc_runtime_Text_isLoaded__C                                    
00012250  xdc_runtime_Text_registryModsLastId__C                          
00012252  xdc_runtime_Text_unnamedModsLastId__C                           
00012254  xdc_runtime_Error_policy__C                                     
00012255  xdc_runtime_Text_charTab__A                                     
00012258  __TI_static_base__                                              
00012618  __TI_Handler_Table_Base                                         
00012624  __TI_Handler_Table_Limit                                        
00012630  __TI_CINIT_Base                                                 
00012640  __TI_CINIT_Limit                                                
0001ffa8  __ccfg                                                          
20000000  ti_sysbios_family_arm_m3_Hwi_ramVectors                         
20000500  ti_uia_loggers_LoggerStopMode_Instance_State_0_packetArray__A   
20000900  ti_uia_loggers_LoggerStopMode_Instance_State_1_packetArray__A   
20000fd0  ti_sysbios_knl_Task_Instance_State_0_stack__A                   
200011d0  xdc_runtime_SysMin_Module_State_0_outbuf__A                     
2000208c  uartCC26XXObjects                                               
200021b8  __CIOBUF_                                                       
200022d8  PIN_NumPins                                                     
2000236c  PIN_HandleTable                                                 
200023e8  i2cCC26xxObjects                                                
200024c8  adcCC26xxObjects                                                
200025a4  ClockP_tickPeriod                                               
20002670  ti_sysbios_family_arm_m3_Hwi_dispatchTable                      
20002974  accelTask                                                       
200029c4  adc1Task                                                        
20002a14  calibrationTask                                                 
20002a64  gyroTask                                                        
20002ab4  initializationTask                                              
20002b04  magTask                                                         
20002b54  rxBeaconTask                                                    
20002ba4  rxRestartTask                                                   
20002bf4  txDataTask                                                      
20002ccc  watchdogCC26XXObjects                                           
20002d00  ti_uia_loggers_LoggerStopMode_Instance_State_0_hdr__A           
20002d30  settings                                                        
20002d58  clk0Struct                                                      
20002d7c  MXN                                                             
20002d80  ti_uia_loggers_LoggerStopMode_Instance_State_1_hdr__A           
20002f00  i2cTransaction                                                  
20002f60  Connections                                                     
20002f94  i2cParams                                                       
20002fb0  aBias                                                           
20002fbc  displayUartObject                                               
20002fc8  gBias                                                           
20002fd4  mBias                                                           
20002fe0  PowerCC26XX_taskKey                                             
20002fe4  PowerCC26XX_swiKey                                              
20003000  aBiasRaw                                                        
20003008  gBiasRaw                                                        
20003010  mBiasRaw                                                        
20003018  params                                                          
20003020  MYN                                                             
20003024  MZN                                                             
20003028  aRes                                                            
2000302c  adc1                                                            
20003030  adcValue1MicroVolt                                              
20003034  gRes                                                            
20003038  i2c                                                             
2000303c  mRes                                                            
20003040  watchdogHandle                                                  
20003046  adcValue1                                                       
20003048  ax                                                              
2000304a  ay                                                              
2000304c  az                                                              
2000304e  gx                                                              
20003050  gy                                                              
20003052  gz                                                              
20003054  mx                                                              
20003056  my                                                              
20003058  mz                                                              
2000305a  _autoCalc                                                       
2000305b  _mAddress                                                       
2000305c  _xgAddress                                                      
2000305d  driverlib_release_0_48919                                       
20003060  __primary_heap_start__                                          
20004060  PowerCC26XX_module                                              
20004060  __primary_heap_end__                                            
20004174  globalPacket                                                    
2000420c  pOverrides_sl_lr                                                
20004274  ti_uia_loggers_LoggerStopMode_Object__table__V                  
200042dc  pOverrides_hsm                                                  
2000433c  pOverrides_lrm                                                  
20004398  pOverrides_ook                                                  
2000444c  pOverrides_fsk                                                  
200044a4  ti_sysbios_knl_Task_Object__table__V                            
200044f0  ti_sysbios_family_arm_cc26xx_Timer_Object__table__V             
20004538  RF_pProp_fsk                                                    
2000453c  RF_pProp_lrm                                                    
20004540  RF_pProp_ook                                                    
20004544  RF_pProp_hsm                                                    
20004548  RF_pProp_sl_lr                                                  
2000454c  RF_pProp_2_4G_fsk                                               
20004550  RF_pCmdPropRadioDivSetup_fsk                                    
20004554  RF_pCmdPropRadioDivSetup_lrm                                    
20004558  RF_pCmdPropRadioDivSetup_ook                                    
2000455c  RF_pCmdRadioSetup_hsm                                           
20004560  RF_pCmdPropRadioDivSetup_sl_lr                                  
20004564  RF_pCmdPropRadioSetup_2_4G_fsk                                  
20004568  RF_pCmdTxHS                                                     
2000456c  RF_pCmdRxHS                                                     
20004570  RF_pCmdFs_preDef                                                
20004574  RF_pCmdPropTx_preDef                                            
20004578  RF_pCmdPropRxAdv_preDef                                         
2000457c  ti_sysbios_knl_Task_Module__state__V                            
200045c0  ti_sysbios_gates_GateMutex_Object__table__V                     
200045f8  ti_sysbios_family_arm_m3_Hwi_Module__state__V                   
2000462c  RF_cmdPropRxAdv_preDef                                          
2000465c  ti_sysbios_knl_Swi_Module_State_0_readyQ__A                     
2000468c  ti_sysbios_knl_Swi_Object__table__V                             
200046bc  ti_sysbios_knl_Task_Module_State_0_readyQ__A                    
200046ec  ti_sysbios_knl_Clock_Module__state__V                           
20004718  RF_cmdPropRadioDivSetup                                         
20004740  RF_cmdPropRadioDivSetup_fsk                                     
20004768  RF_cmdPropRadioDivSetup_lrm                                     
20004790  RF_cmdPropRadioDivSetup_ook                                     
200047b8  RF_cmdPropRadioDivSetup_sl_lr                                   
200047e0  RF_cmdRxHS                                                      
20004804  ti_sysbios_BIOS_Module__state__V                                
20004848  ti_sysbios_knl_Clock_Object__table__V                           
20004868  xdc_runtime_Error_IgnoreBlock                                   
20004888  ti_sysbios_knl_Swi_Module__state__V                             
200048a4  RF_cmdFs                                                        
200048bc  RF_cmdFs_preDef                                                 
200048d4  RF_cmdPropTx                                                    
200048ec  RF_cmdPropTx_preDef                                             
20004904  RF_cmdRadioSetup_hsm                                            
20004934  goodToGo                                                        
20004938  AXN                                                             
2000493c  AYN                                                             
20004940  AZN                                                             
20004944  bytesRead                                                       
20004948  numConnections                                                  
2000494c  pinTable                                                        
20004964  shapeovr                                                        
2000497c  ti_sysbios_family_arm_m3_Hwi_Object__table__V                   
20004994  ti_sysbios_heaps_HeapMem_Object__table__V                       
200049ac  RF_cmdTxHS                                                      
200049d0  RF_prop                                                         
200049e0  RF_prop_fsk                                                     
200049f0  RF_prop_hsm                                                     
20004a00  RF_prop_lrm                                                     
20004a10  RF_prop_ook                                                     
20004a20  RF_prop_sl_lr                                                   
20004a3e  ti_sysbios_family_arm_m3_Hwi_Module_State_0_excActive__A        
20004a40  __TI_cleanup_ptr                                                
20004a44  __TI_dtors_ptr                                                  
20004a48  __TI_enable_exit_profile_output                                 
20004a4c  ti_sysbios_knl_Task_Module__root__V                             
20004a58  ti_uia_runtime_QueueDescriptor_Module__state__V                 
20004a64  xdc_runtime_SysMin_Module__state__V                             
20004a70  _lock                                                           
20004a74  _unlock                                                         
20004a78  ti_uia_runtime_QueueDescriptor_gPtrToFirstDescriptor            
20004a7c  ti_uia_runtime_QueueDescriptor_gUpdateCount                     
20004a80  ti_sysbios_family_arm_cc26xx_Timer_Module__state__V             
20004a88  ti_sysbios_family_arm_m3_Hwi_Module__root__V                    
20004a90  ti_sysbios_gates_GateHwi_Module__root__V                        
20004a98  ti_sysbios_gates_GateMutex_Module__root__V                      
20004aa0  ti_sysbios_heaps_HeapMem_Module__root__V                        
20004aa8  ti_sysbios_knl_Clock_Module__root__V                            
20004ab0  ti_sysbios_knl_Queue_Module__root__V                            
20004ab8  ti_sysbios_knl_Semaphore_Module__root__V                        
20004ac0  ti_sysbios_knl_Swi_Module__root__V                              
20004ac8  ti_uia_loggers_LoggerStopMode_Module__root__V                   
20004ad0  xdc_runtime_Registry_Module__state__V                           
20004ad8  xdc_runtime_Startup_Module__state__V                            
20004ae0  xdc_runtime_System_Module_State_0_atexitHandlers__A             
20004ae8  xdc_runtime_System_Module__state__V                             
20004af0  main_func_sp                                                    
20004af4  ti_sysbios_family_arm_cc26xx_TimestampProvider_Module__state__V 
20004af8  ti_sysbios_family_arm_m3_Hwi_Module_State_0_excContext__A       
20004afc  ti_sysbios_family_arm_m3_Hwi_Module_State_0_excStack__A         
20004b00  ti_sysbios_gates_GateHwi_Object__table__V                       
20004b04  ti_sysbios_knl_Task_Module_State_0_idleTask__A                  
20004b08  xdc_runtime_Memory_Module__state__V                             
20004c00  __stack                                                         
20005000  __STACK_END                                                     
e000e000  ti_sysbios_family_arm_m3_Hwi_nvic                               
ffffffff  __TI_pprof_out_hndl                                             
ffffffff  __TI_prof_data_size                                             
ffffffff  __TI_prof_data_start                                            
ffffffff  __binit__                                                       
ffffffff  __c_args__                                                      
ffffffff  binit                                                           
UNDEFED   SHT$$INIT_ARRAY$$Base                                           
UNDEFED   SHT$$INIT_ARRAY$$Limit                                          

[1038 symbols]
